ARM GAS  C:\Users\arnau\AppData\Local\Temp\ccPQAG8K.s 			page 1


   1              		.syntax unified
   2              		.cpu cortex-m4
   3              		.eabi_attribute 27, 1
   4              		.fpu fpv4-sp-d16
   5              		.eabi_attribute 20, 1
   6              		.eabi_attribute 21, 1
   7              		.eabi_attribute 23, 3
   8              		.eabi_attribute 24, 1
   9              		.eabi_attribute 25, 1
  10              		.eabi_attribute 26, 1
  11              		.eabi_attribute 30, 1
  12              		.eabi_attribute 34, 1
  13              		.eabi_attribute 18, 4
  14              		.thumb
  15              		.syntax unified
  16              		.file	"i2cm_support.c"
  17              		.text
  18              	.Ltext0:
  19              		.cfi_sections	.debug_frame
  20              		.section	.text.I2C_WriteBytes,"ax",%progbits
  21              		.align	2
  22              		.global	I2C_WriteBytes
  23              		.thumb
  24              		.thumb_func
  25              		.type	I2C_WriteBytes, %function
  26              	I2C_WriteBytes:
  27              	.LFB515:
  28              		.file 1 "i2cm_support.c"
   1:i2cm_support.c **** /*******************************************************************************
   2:i2cm_support.c **** * File Name: i2cm_support.c
   3:i2cm_support.c **** *
   4:i2cm_support.c **** * Version 1.0
   5:i2cm_support.c **** *
   6:i2cm_support.c **** * Description: This file contains the functions for I2C read and write 
   7:i2cm_support.c ****                operations for interfacing with the BMI160 motion sensor.
   8:i2cm_support.c **** * 
   9:i2cm_support.c **** *******************************************************************************
  10:i2cm_support.c **** * Copyright (2018), Cypress Semiconductor Corporation. All rights reserved.
  11:i2cm_support.c **** *******************************************************************************
  12:i2cm_support.c **** * This software, including source code, documentation and related materials
  13:i2cm_support.c **** * (“Software”), is owned by Cypress Semiconductor Corporation or one of its
  14:i2cm_support.c **** * subsidiaries (“Cypress”) and is protected by and subject to worldwide patent
  15:i2cm_support.c **** * protection (United States and foreign), United States copyright laws and
  16:i2cm_support.c **** * international treaty provisions. Therefore, you may use this Software only
  17:i2cm_support.c **** * as provided in the license agreement accompanying the software package from
  18:i2cm_support.c **** * which you obtained this Software (“EULA”).
  19:i2cm_support.c **** *
  20:i2cm_support.c **** * If no EULA applies, Cypress hereby grants you a personal, nonexclusive,
  21:i2cm_support.c **** * non-transferable license to copy, modify, and compile the Software source
  22:i2cm_support.c **** * code solely for use in connection with Cypress’s integrated circuit products.
  23:i2cm_support.c **** * Any reproduction, modification, translation, compilation, or representation
  24:i2cm_support.c **** * of this Software except as specified above is prohibited without the express
  25:i2cm_support.c **** * written permission of Cypress.
  26:i2cm_support.c **** *
  27:i2cm_support.c **** * Disclaimer: THIS SOFTWARE IS PROVIDED AS-IS, WITH NO WARRANTY OF ANY KIND, 
  28:i2cm_support.c **** * EXPRESS OR IMPLIED, INCLUDING, BUT NOT LIMITED TO, NONINFRINGEMENT, IMPLIED 
  29:i2cm_support.c **** * WARRANTIES OF MERCHANTABILITY AND FITNESS FOR A PARTICULAR PURPOSE. Cypress 
ARM GAS  C:\Users\arnau\AppData\Local\Temp\ccPQAG8K.s 			page 2


  30:i2cm_support.c **** * reserves the right to make changes to the Software without notice. Cypress 
  31:i2cm_support.c **** * does not assume any liability arising out of the application or use of the 
  32:i2cm_support.c **** * Software or any product or circuit described in the Software. Cypress does 
  33:i2cm_support.c **** * not authorize its products for use in any products where a malfunction or 
  34:i2cm_support.c **** * failure of the Cypress product may reasonably be expected to result in 
  35:i2cm_support.c **** * significant property damage, injury or death (“High Risk Product”). By 
  36:i2cm_support.c **** * including Cypress’s product in a High Risk Product, the manufacturer of such 
  37:i2cm_support.c **** * system or application assumes all risk of such use and in doing so agrees to 
  38:i2cm_support.c **** * indemnify Cypress against all liability.
  39:i2cm_support.c **** *******************************************************************************/
  40:i2cm_support.c **** 
  41:i2cm_support.c **** /* Header files include */ 
  42:i2cm_support.c **** #include "i2cm_support.h"
  43:i2cm_support.c **** #include "FreeRTOS.h"
  44:i2cm_support.c **** #include "task.h"
  45:i2cm_support.c **** #include "uart_debug.h"
  46:i2cm_support.c **** 
  47:i2cm_support.c **** #define I2C_BUFFER_SIZE (10u)
  48:i2cm_support.c **** 
  49:i2cm_support.c **** /* Semaphore handle */
  50:i2cm_support.c **** SemaphoreHandle_t xSemaphoreI2C;
  51:i2cm_support.c **** 
  52:i2cm_support.c **** /*******************************************************************************
  53:i2cm_support.c **** * Function Name: I2C_WriteBytes()
  54:i2cm_support.c **** ********************************************************************************
  55:i2cm_support.c **** * Summary:
  56:i2cm_support.c **** *  Function that writes data to an I2C slave device 
  57:i2cm_support.c **** *
  58:i2cm_support.c **** * Parameters:
  59:i2cm_support.c **** *  unsigned char Address        - I2C slave address
  60:i2cm_support.c **** *  unsigned char RegisterAddr   - register address to select gyro, accelerometer
  61:i2cm_support.c **** *                                 data
  62:i2cm_support.c **** *  unsigned char *RegisterValue - pointer to data to be written to I2C slave
  63:i2cm_support.c **** *  unsigned char  RegisterLen   - length of sensor data in bytes
  64:i2cm_support.c **** * Return:
  65:i2cm_support.c **** *  unsigned long status - status of I2C write operation
  66:i2cm_support.c **** *
  67:i2cm_support.c **** *******************************************************************************/
  68:i2cm_support.c **** unsigned int I2C_WriteBytes(uint8_t Address, uint8_t RegisterAddr, uint8_t *RegisterValue, uint8_t 
  69:i2cm_support.c **** {
  29              		.loc 1 69 0
  30              		.cfi_startproc
  31              		@ args = 0, pretend = 0, frame = 16
  32              		@ frame_needed = 0, uses_anonymous_args = 0
  33              	.LVL0:
  34 0000 F0B5     		push	{r4, r5, r6, r7, lr}
  35              		.cfi_def_cfa_offset 20
  36              		.cfi_offset 4, -20
  37              		.cfi_offset 5, -16
  38              		.cfi_offset 6, -12
  39              		.cfi_offset 7, -8
  40              		.cfi_offset 14, -4
  41 0002 85B0     		sub	sp, sp, #20
  42              		.cfi_def_cfa_offset 40
  43 0004 0646     		mov	r6, r0
  44 0006 1746     		mov	r7, r2
  45 0008 1C46     		mov	r4, r3
ARM GAS  C:\Users\arnau\AppData\Local\Temp\ccPQAG8K.s 			page 3


  70:i2cm_support.c ****     /* Variable used for status of I2C operation */
  71:i2cm_support.c ****     unsigned int status;
  72:i2cm_support.c ****     
  73:i2cm_support.c ****     /* Temporary buffer used for I2C transfer */ 
  74:i2cm_support.c ****     static uint8_t tempBuff[I2C_BUFFER_SIZE];
  75:i2cm_support.c ****     tempBuff[0] = RegisterAddr;
  46              		.loc 1 75 0
  47 000a 0F4D     		ldr	r5, .L3
  48 000c 2846     		mov	r0, r5
  49              	.LVL1:
  50 000e 00F8011B 		strb	r1, [r0], #1
  76:i2cm_support.c ****     memcpy(tempBuff+1, RegisterValue, RegisterLen);
  51              		.loc 1 76 0
  52 0012 1A46     		mov	r2, r3
  53              	.LVL2:
  54 0014 3946     		mov	r1, r7
  55              	.LVL3:
  56 0016 FFF7FEFF 		bl	memcpy
  57              	.LVL4:
  77:i2cm_support.c **** 
  78:i2cm_support.c ****     /* Local variables for storing I2C Master transfer configuration structure */
  79:i2cm_support.c ****     cy_stc_scb_i2c_master_xfer_config_t config = 
  58              		.loc 1 79 0
  59 001a 8DF80060 		strb	r6, [sp]
  60 001e 0195     		str	r5, [sp, #4]
  80:i2cm_support.c ****     {  
  81:i2cm_support.c ****         .slaveAddress = (uint32)Address,
  82:i2cm_support.c ****         .buffer =  tempBuff,
  83:i2cm_support.c ****         .bufferSize = RegisterLen+1,
  61              		.loc 1 83 0
  62 0020 0134     		adds	r4, r4, #1
  79:i2cm_support.c ****     {  
  63              		.loc 1 79 0
  64 0022 0294     		str	r4, [sp, #8]
  65 0024 0023     		movs	r3, #0
  66 0026 8DF80C30 		strb	r3, [sp, #12]
  67              	.LVL5:
  68              	.LBB8:
  69              	.LBB9:
  70              		.file 2 "Generated_Source\\PSoC6/I2Cm.h"
   1:Generated_Source\PSoC6/I2Cm.h **** /***************************************************************************//**
   2:Generated_Source\PSoC6/I2Cm.h **** * \file I2Cm.c
   3:Generated_Source\PSoC6/I2Cm.h **** * \version 2.0
   4:Generated_Source\PSoC6/I2Cm.h **** *
   5:Generated_Source\PSoC6/I2Cm.h **** *  This file provides constants and parameter values for the I2C component.
   6:Generated_Source\PSoC6/I2Cm.h **** *
   7:Generated_Source\PSoC6/I2Cm.h **** ********************************************************************************
   8:Generated_Source\PSoC6/I2Cm.h **** * \copyright
   9:Generated_Source\PSoC6/I2Cm.h **** * Copyright 2016-2017, Cypress Semiconductor Corporation. All rights reserved.
  10:Generated_Source\PSoC6/I2Cm.h **** * You may use this file only in accordance with the license, terms, conditions,
  11:Generated_Source\PSoC6/I2Cm.h **** * disclaimers, and limitations in the end user license agreement accompanying
  12:Generated_Source\PSoC6/I2Cm.h **** * the software package with which this file was provided.
  13:Generated_Source\PSoC6/I2Cm.h **** *******************************************************************************/
  14:Generated_Source\PSoC6/I2Cm.h **** 
  15:Generated_Source\PSoC6/I2Cm.h **** #if !defined(I2Cm_CY_SCB_I2C_PDL_H)
  16:Generated_Source\PSoC6/I2Cm.h **** #define I2Cm_CY_SCB_I2C_PDL_H
  17:Generated_Source\PSoC6/I2Cm.h **** 
ARM GAS  C:\Users\arnau\AppData\Local\Temp\ccPQAG8K.s 			page 4


  18:Generated_Source\PSoC6/I2Cm.h **** #include "cyfitter.h"
  19:Generated_Source\PSoC6/I2Cm.h **** #include "scb/cy_scb_i2c.h"
  20:Generated_Source\PSoC6/I2Cm.h **** 
  21:Generated_Source\PSoC6/I2Cm.h **** #if defined(__cplusplus)
  22:Generated_Source\PSoC6/I2Cm.h **** extern "C" {
  23:Generated_Source\PSoC6/I2Cm.h **** #endif
  24:Generated_Source\PSoC6/I2Cm.h **** 
  25:Generated_Source\PSoC6/I2Cm.h **** /***************************************
  26:Generated_Source\PSoC6/I2Cm.h **** *   Initial Parameter Constants
  27:Generated_Source\PSoC6/I2Cm.h **** ****************************************/
  28:Generated_Source\PSoC6/I2Cm.h **** 
  29:Generated_Source\PSoC6/I2Cm.h **** #define I2Cm_MODE               (0x2U)
  30:Generated_Source\PSoC6/I2Cm.h **** #define I2Cm_MODE_SLAVE_MASK    (0x1U)
  31:Generated_Source\PSoC6/I2Cm.h **** #define I2Cm_MODE_MASTER_MASK   (0x2U)
  32:Generated_Source\PSoC6/I2Cm.h **** 
  33:Generated_Source\PSoC6/I2Cm.h **** #define I2Cm_ENABLE_SLAVE       (0UL != (I2Cm_MODE & I2Cm_MODE_SLAVE_MASK))
  34:Generated_Source\PSoC6/I2Cm.h **** #define I2Cm_ENABLE_MASTER      (0UL != (I2Cm_MODE & I2Cm_MODE_MASTER_MASK))
  35:Generated_Source\PSoC6/I2Cm.h **** #define I2Cm_MANUAL_SCL_CONTROL (0U)
  36:Generated_Source\PSoC6/I2Cm.h **** 
  37:Generated_Source\PSoC6/I2Cm.h **** 
  38:Generated_Source\PSoC6/I2Cm.h **** /***************************************
  39:Generated_Source\PSoC6/I2Cm.h **** *        Function Prototypes
  40:Generated_Source\PSoC6/I2Cm.h **** ***************************************/
  41:Generated_Source\PSoC6/I2Cm.h **** /**
  42:Generated_Source\PSoC6/I2Cm.h **** * \addtogroup group_general
  43:Generated_Source\PSoC6/I2Cm.h **** * @{
  44:Generated_Source\PSoC6/I2Cm.h **** */
  45:Generated_Source\PSoC6/I2Cm.h **** /* Component only APIs. */
  46:Generated_Source\PSoC6/I2Cm.h **** void I2Cm_Start(void);
  47:Generated_Source\PSoC6/I2Cm.h **** 
  48:Generated_Source\PSoC6/I2Cm.h **** /* Basic functions. */
  49:Generated_Source\PSoC6/I2Cm.h **** __STATIC_INLINE cy_en_scb_i2c_status_t I2Cm_Init(cy_stc_scb_i2c_config_t const *config);
  50:Generated_Source\PSoC6/I2Cm.h **** __STATIC_INLINE void I2Cm_DeInit (void);
  51:Generated_Source\PSoC6/I2Cm.h **** __STATIC_INLINE void I2Cm_Enable (void);
  52:Generated_Source\PSoC6/I2Cm.h **** __STATIC_INLINE void I2Cm_Disable(void);
  53:Generated_Source\PSoC6/I2Cm.h **** 
  54:Generated_Source\PSoC6/I2Cm.h **** /* Data rate configuration functions. */
  55:Generated_Source\PSoC6/I2Cm.h **** __STATIC_INLINE uint32_t I2Cm_SetDataRate(uint32_t dataRateHz, uint32_t scbClockHz);
  56:Generated_Source\PSoC6/I2Cm.h **** __STATIC_INLINE uint32_t I2Cm_GetDataRate(uint32_t scbClockHz);
  57:Generated_Source\PSoC6/I2Cm.h **** 
  58:Generated_Source\PSoC6/I2Cm.h **** /* Register callbacks. */
  59:Generated_Source\PSoC6/I2Cm.h **** __STATIC_INLINE void I2Cm_RegisterEventCallback(cy_cb_scb_i2c_handle_events_t callback);
  60:Generated_Source\PSoC6/I2Cm.h **** #if (I2Cm_ENABLE_SLAVE)
  61:Generated_Source\PSoC6/I2Cm.h **** __STATIC_INLINE void I2Cm_RegisterAddrCallback (cy_cb_scb_i2c_handle_addr_t callback);
  62:Generated_Source\PSoC6/I2Cm.h **** #endif /* (I2Cm_ENABLE_SLAVE) */
  63:Generated_Source\PSoC6/I2Cm.h **** 
  64:Generated_Source\PSoC6/I2Cm.h **** /* Configuration functions. */
  65:Generated_Source\PSoC6/I2Cm.h **** #if (I2Cm_ENABLE_SLAVE)
  66:Generated_Source\PSoC6/I2Cm.h **** __STATIC_INLINE void     I2Cm_SlaveSetAddress(uint8_t addr);
  67:Generated_Source\PSoC6/I2Cm.h **** __STATIC_INLINE uint32_t I2Cm_SlaveGetAddress(void);
  68:Generated_Source\PSoC6/I2Cm.h **** __STATIC_INLINE void     I2Cm_SlaveSetAddressMask(uint8_t addrMask);
  69:Generated_Source\PSoC6/I2Cm.h **** __STATIC_INLINE uint32_t I2Cm_SlaveGetAddressMask(void);
  70:Generated_Source\PSoC6/I2Cm.h **** #endif /* (I2Cm_ENABLE_SLAVE) */
  71:Generated_Source\PSoC6/I2Cm.h **** 
  72:Generated_Source\PSoC6/I2Cm.h **** #if (I2Cm_ENABLE_MASTER)
  73:Generated_Source\PSoC6/I2Cm.h **** __STATIC_INLINE void I2Cm_MasterSetLowPhaseDutyCycle (uint32_t clockCycles);
  74:Generated_Source\PSoC6/I2Cm.h **** __STATIC_INLINE void I2Cm_MasterSetHighPhaseDutyCycle(uint32_t clockCycles);
ARM GAS  C:\Users\arnau\AppData\Local\Temp\ccPQAG8K.s 			page 5


  75:Generated_Source\PSoC6/I2Cm.h **** #endif /* (I2Cm_ENABLE_MASTER) */
  76:Generated_Source\PSoC6/I2Cm.h **** 
  77:Generated_Source\PSoC6/I2Cm.h **** /* Bus status. */
  78:Generated_Source\PSoC6/I2Cm.h **** __STATIC_INLINE bool     I2Cm_IsBusBusy(void);
  79:Generated_Source\PSoC6/I2Cm.h **** 
  80:Generated_Source\PSoC6/I2Cm.h **** /* Slave functions. */
  81:Generated_Source\PSoC6/I2Cm.h **** #if (I2Cm_ENABLE_SLAVE)
  82:Generated_Source\PSoC6/I2Cm.h **** __STATIC_INLINE uint32_t I2Cm_SlaveGetStatus(void);
  83:Generated_Source\PSoC6/I2Cm.h **** 
  84:Generated_Source\PSoC6/I2Cm.h **** __STATIC_INLINE void     I2Cm_SlaveConfigReadBuf(uint8_t *buffer, uint32_t size);
  85:Generated_Source\PSoC6/I2Cm.h **** __STATIC_INLINE void     I2Cm_SlaveAbortRead(void);
  86:Generated_Source\PSoC6/I2Cm.h **** __STATIC_INLINE uint32_t I2Cm_SlaveGetReadTransferCount(void);
  87:Generated_Source\PSoC6/I2Cm.h **** __STATIC_INLINE uint32_t I2Cm_SlaveClearReadStatus(void);
  88:Generated_Source\PSoC6/I2Cm.h **** 
  89:Generated_Source\PSoC6/I2Cm.h **** __STATIC_INLINE void     I2Cm_SlaveConfigWriteBuf(uint8_t *buffer, uint32_t size);
  90:Generated_Source\PSoC6/I2Cm.h **** __STATIC_INLINE void     I2Cm_SlaveAbortWrite(void);
  91:Generated_Source\PSoC6/I2Cm.h **** __STATIC_INLINE uint32_t I2Cm_SlaveGetWriteTransferCount(void);
  92:Generated_Source\PSoC6/I2Cm.h **** __STATIC_INLINE uint32_t I2Cm_SlaveClearWriteStatus(void);
  93:Generated_Source\PSoC6/I2Cm.h **** #endif /* (I2Cm_ENABLE_SLAVE) */
  94:Generated_Source\PSoC6/I2Cm.h **** 
  95:Generated_Source\PSoC6/I2Cm.h **** /* Master interrupt processing functions. */
  96:Generated_Source\PSoC6/I2Cm.h **** #if (I2Cm_ENABLE_MASTER)
  97:Generated_Source\PSoC6/I2Cm.h **** __STATIC_INLINE uint32_t I2Cm_MasterGetStatus(void);
  98:Generated_Source\PSoC6/I2Cm.h **** 
  99:Generated_Source\PSoC6/I2Cm.h **** __STATIC_INLINE cy_en_scb_i2c_status_t I2Cm_MasterRead(cy_stc_scb_i2c_master_xfer_config_t *xferCon
 100:Generated_Source\PSoC6/I2Cm.h **** __STATIC_INLINE void I2Cm_MasterAbortRead(void);
 101:Generated_Source\PSoC6/I2Cm.h **** __STATIC_INLINE cy_en_scb_i2c_status_t I2Cm_MasterWrite(cy_stc_scb_i2c_master_xfer_config_t *xferCo
 102:Generated_Source\PSoC6/I2Cm.h **** __STATIC_INLINE void I2Cm_MasterAbortWrite(void);
 103:Generated_Source\PSoC6/I2Cm.h **** __STATIC_INLINE uint32_t I2Cm_MasterGetTransferCount(void);
 104:Generated_Source\PSoC6/I2Cm.h **** 
 105:Generated_Source\PSoC6/I2Cm.h **** /* Master manual processing functions. */
 106:Generated_Source\PSoC6/I2Cm.h **** __STATIC_INLINE cy_en_scb_i2c_status_t I2Cm_MasterSendStart(uint32_t address, cy_en_scb_i2c_directi
 107:Generated_Source\PSoC6/I2Cm.h **** __STATIC_INLINE cy_en_scb_i2c_status_t I2Cm_MasterSendReStart(uint32_t address, cy_en_scb_i2c_direc
 108:Generated_Source\PSoC6/I2Cm.h **** __STATIC_INLINE cy_en_scb_i2c_status_t I2Cm_MasterSendStop(uint32_t timeoutMs);
 109:Generated_Source\PSoC6/I2Cm.h **** __STATIC_INLINE cy_en_scb_i2c_status_t I2Cm_MasterReadByte(cy_en_scb_i2c_command_t ackNack, uint8_t
 110:Generated_Source\PSoC6/I2Cm.h **** __STATIC_INLINE cy_en_scb_i2c_status_t I2Cm_MasterWriteByte(uint8_t byte, uint32_t timeoutMs);
 111:Generated_Source\PSoC6/I2Cm.h **** #endif /* (I2Cm_ENABLE_MASTER) */
 112:Generated_Source\PSoC6/I2Cm.h **** 
 113:Generated_Source\PSoC6/I2Cm.h **** /* Interrupt handler. */
 114:Generated_Source\PSoC6/I2Cm.h **** __STATIC_INLINE void I2Cm_Interrupt(void);
 115:Generated_Source\PSoC6/I2Cm.h **** /** @} group_general */
 116:Generated_Source\PSoC6/I2Cm.h **** 
 117:Generated_Source\PSoC6/I2Cm.h **** 
 118:Generated_Source\PSoC6/I2Cm.h **** /***************************************
 119:Generated_Source\PSoC6/I2Cm.h **** *    Variables with External Linkage
 120:Generated_Source\PSoC6/I2Cm.h **** ***************************************/
 121:Generated_Source\PSoC6/I2Cm.h **** /**
 122:Generated_Source\PSoC6/I2Cm.h **** * \addtogroup group_globals
 123:Generated_Source\PSoC6/I2Cm.h **** * @{
 124:Generated_Source\PSoC6/I2Cm.h **** */
 125:Generated_Source\PSoC6/I2Cm.h **** extern uint8_t I2Cm_initVar;
 126:Generated_Source\PSoC6/I2Cm.h **** extern cy_stc_scb_i2c_config_t const I2Cm_config;
 127:Generated_Source\PSoC6/I2Cm.h **** extern cy_stc_scb_i2c_context_t I2Cm_context;
 128:Generated_Source\PSoC6/I2Cm.h **** /** @} group_globals */
 129:Generated_Source\PSoC6/I2Cm.h **** 
 130:Generated_Source\PSoC6/I2Cm.h **** 
 131:Generated_Source\PSoC6/I2Cm.h **** /***************************************
ARM GAS  C:\Users\arnau\AppData\Local\Temp\ccPQAG8K.s 			page 6


 132:Generated_Source\PSoC6/I2Cm.h **** *         Preprocessor Macros
 133:Generated_Source\PSoC6/I2Cm.h **** ***************************************/
 134:Generated_Source\PSoC6/I2Cm.h **** /**
 135:Generated_Source\PSoC6/I2Cm.h **** * \addtogroup group_macros
 136:Generated_Source\PSoC6/I2Cm.h **** * @{
 137:Generated_Source\PSoC6/I2Cm.h **** */
 138:Generated_Source\PSoC6/I2Cm.h **** /** The pointer to the base address of the SCB instance */
 139:Generated_Source\PSoC6/I2Cm.h **** #define I2Cm_HW     ((CySCB_Type *) I2Cm_SCB__HW)
 140:Generated_Source\PSoC6/I2Cm.h **** 
 141:Generated_Source\PSoC6/I2Cm.h **** /** The desired data rate in Hz */
 142:Generated_Source\PSoC6/I2Cm.h **** #define I2Cm_DATA_RATE_HZ      (400000U)
 143:Generated_Source\PSoC6/I2Cm.h **** 
 144:Generated_Source\PSoC6/I2Cm.h **** /** The frequency of the clock used by the Component in Hz */
 145:Generated_Source\PSoC6/I2Cm.h **** #define I2Cm_CLK_FREQ_HZ       (8000000U)
 146:Generated_Source\PSoC6/I2Cm.h **** 
 147:Generated_Source\PSoC6/I2Cm.h **** /** The number of Component clocks used by the master to generate the SCL
 148:Generated_Source\PSoC6/I2Cm.h **** * low phase. This number is calculated by GUI based on the selected data rate.
 149:Generated_Source\PSoC6/I2Cm.h **** */
 150:Generated_Source\PSoC6/I2Cm.h **** #define I2Cm_LOW_PHASE_DUTY_CYCLE   (13U)
 151:Generated_Source\PSoC6/I2Cm.h **** 
 152:Generated_Source\PSoC6/I2Cm.h **** /** The number of Component clocks used by the master to generate the SCL
 153:Generated_Source\PSoC6/I2Cm.h **** * high phase. This number is calculated by GUI based on the selected data rate.
 154:Generated_Source\PSoC6/I2Cm.h **** */
 155:Generated_Source\PSoC6/I2Cm.h **** #define I2Cm_HIGH_PHASE_DUTY_CYCLE  (8U)
 156:Generated_Source\PSoC6/I2Cm.h **** /** @} group_macros */
 157:Generated_Source\PSoC6/I2Cm.h **** 
 158:Generated_Source\PSoC6/I2Cm.h **** 
 159:Generated_Source\PSoC6/I2Cm.h **** /***************************************
 160:Generated_Source\PSoC6/I2Cm.h **** *    In-line Function Implementation
 161:Generated_Source\PSoC6/I2Cm.h **** ***************************************/
 162:Generated_Source\PSoC6/I2Cm.h **** 
 163:Generated_Source\PSoC6/I2Cm.h **** /*******************************************************************************
 164:Generated_Source\PSoC6/I2Cm.h **** * Function Name: I2Cm_Init
 165:Generated_Source\PSoC6/I2Cm.h **** ****************************************************************************//**
 166:Generated_Source\PSoC6/I2Cm.h **** *
 167:Generated_Source\PSoC6/I2Cm.h **** * Invokes the Cy_SCB_I2C_Init() PDL driver function.
 168:Generated_Source\PSoC6/I2Cm.h **** *
 169:Generated_Source\PSoC6/I2Cm.h **** *******************************************************************************/
 170:Generated_Source\PSoC6/I2Cm.h **** __STATIC_INLINE cy_en_scb_i2c_status_t I2Cm_Init(cy_stc_scb_i2c_config_t const *config)
 171:Generated_Source\PSoC6/I2Cm.h **** {
 172:Generated_Source\PSoC6/I2Cm.h ****     return Cy_SCB_I2C_Init(I2Cm_HW, config, &I2Cm_context);
 173:Generated_Source\PSoC6/I2Cm.h **** }
 174:Generated_Source\PSoC6/I2Cm.h **** 
 175:Generated_Source\PSoC6/I2Cm.h **** 
 176:Generated_Source\PSoC6/I2Cm.h **** /*******************************************************************************
 177:Generated_Source\PSoC6/I2Cm.h **** *  Function Name: I2Cm_DeInit
 178:Generated_Source\PSoC6/I2Cm.h **** ****************************************************************************//**
 179:Generated_Source\PSoC6/I2Cm.h **** *
 180:Generated_Source\PSoC6/I2Cm.h **** * Invokes the Cy_SCB_I2C_DeInit() PDL driver function.
 181:Generated_Source\PSoC6/I2Cm.h **** *
 182:Generated_Source\PSoC6/I2Cm.h **** *******************************************************************************/
 183:Generated_Source\PSoC6/I2Cm.h **** __STATIC_INLINE void I2Cm_DeInit(void)
 184:Generated_Source\PSoC6/I2Cm.h **** {
 185:Generated_Source\PSoC6/I2Cm.h ****     Cy_SCB_I2C_DeInit(I2Cm_HW);
 186:Generated_Source\PSoC6/I2Cm.h **** }
 187:Generated_Source\PSoC6/I2Cm.h **** 
 188:Generated_Source\PSoC6/I2Cm.h **** 
ARM GAS  C:\Users\arnau\AppData\Local\Temp\ccPQAG8K.s 			page 7


 189:Generated_Source\PSoC6/I2Cm.h **** /*******************************************************************************
 190:Generated_Source\PSoC6/I2Cm.h **** * Function Name: I2Cm_Enable
 191:Generated_Source\PSoC6/I2Cm.h **** ****************************************************************************//**
 192:Generated_Source\PSoC6/I2Cm.h **** *
 193:Generated_Source\PSoC6/I2Cm.h **** * Invokes the Cy_SCB_I2C_Enable() PDL driver function.
 194:Generated_Source\PSoC6/I2Cm.h **** *
 195:Generated_Source\PSoC6/I2Cm.h **** *******************************************************************************/
 196:Generated_Source\PSoC6/I2Cm.h **** __STATIC_INLINE void I2Cm_Enable(void)
 197:Generated_Source\PSoC6/I2Cm.h **** {
 198:Generated_Source\PSoC6/I2Cm.h ****     Cy_SCB_I2C_Enable(I2Cm_HW);
 199:Generated_Source\PSoC6/I2Cm.h **** }
 200:Generated_Source\PSoC6/I2Cm.h **** 
 201:Generated_Source\PSoC6/I2Cm.h **** 
 202:Generated_Source\PSoC6/I2Cm.h **** /*******************************************************************************
 203:Generated_Source\PSoC6/I2Cm.h **** * Function Name: I2Cm_Disable
 204:Generated_Source\PSoC6/I2Cm.h **** ****************************************************************************//**
 205:Generated_Source\PSoC6/I2Cm.h **** *
 206:Generated_Source\PSoC6/I2Cm.h **** * Invokes the Cy_SCB_I2C_Disable() PDL driver function.
 207:Generated_Source\PSoC6/I2Cm.h **** *
 208:Generated_Source\PSoC6/I2Cm.h **** *******************************************************************************/
 209:Generated_Source\PSoC6/I2Cm.h **** __STATIC_INLINE void I2Cm_Disable(void)
 210:Generated_Source\PSoC6/I2Cm.h **** {
 211:Generated_Source\PSoC6/I2Cm.h ****     Cy_SCB_I2C_Disable(I2Cm_HW, &I2Cm_context);
 212:Generated_Source\PSoC6/I2Cm.h **** }
 213:Generated_Source\PSoC6/I2Cm.h **** 
 214:Generated_Source\PSoC6/I2Cm.h **** 
 215:Generated_Source\PSoC6/I2Cm.h **** /*******************************************************************************
 216:Generated_Source\PSoC6/I2Cm.h **** * Function Name: I2Cm_SetDataRate
 217:Generated_Source\PSoC6/I2Cm.h **** ****************************************************************************//**
 218:Generated_Source\PSoC6/I2Cm.h **** *
 219:Generated_Source\PSoC6/I2Cm.h **** * Invokes the Cy_SCB_I2C_SetDataRate() PDL driver function.
 220:Generated_Source\PSoC6/I2Cm.h **** *
 221:Generated_Source\PSoC6/I2Cm.h **** *******************************************************************************/
 222:Generated_Source\PSoC6/I2Cm.h **** __STATIC_INLINE uint32_t I2Cm_SetDataRate(uint32_t dataRateHz, uint32_t scbClockHz)
 223:Generated_Source\PSoC6/I2Cm.h **** {
 224:Generated_Source\PSoC6/I2Cm.h ****     return Cy_SCB_I2C_SetDataRate(I2Cm_HW, dataRateHz, scbClockHz);
 225:Generated_Source\PSoC6/I2Cm.h **** }
 226:Generated_Source\PSoC6/I2Cm.h **** 
 227:Generated_Source\PSoC6/I2Cm.h **** 
 228:Generated_Source\PSoC6/I2Cm.h **** /*******************************************************************************
 229:Generated_Source\PSoC6/I2Cm.h **** * Function Name: I2Cm_GetDataRate
 230:Generated_Source\PSoC6/I2Cm.h **** ****************************************************************************//**
 231:Generated_Source\PSoC6/I2Cm.h **** *
 232:Generated_Source\PSoC6/I2Cm.h **** * Invokes the Cy_SCB_I2C_GetDataRate() PDL driver function.
 233:Generated_Source\PSoC6/I2Cm.h **** *
 234:Generated_Source\PSoC6/I2Cm.h **** *******************************************************************************/
 235:Generated_Source\PSoC6/I2Cm.h **** __STATIC_INLINE uint32_t I2Cm_GetDataRate(uint32_t scbClockHz)
 236:Generated_Source\PSoC6/I2Cm.h **** {
 237:Generated_Source\PSoC6/I2Cm.h ****     return Cy_SCB_I2C_GetDataRate(I2Cm_HW, scbClockHz);
 238:Generated_Source\PSoC6/I2Cm.h **** }
 239:Generated_Source\PSoC6/I2Cm.h **** 
 240:Generated_Source\PSoC6/I2Cm.h **** 
 241:Generated_Source\PSoC6/I2Cm.h **** /*******************************************************************************
 242:Generated_Source\PSoC6/I2Cm.h **** * Function Name: I2Cm_RegisterEventCallback
 243:Generated_Source\PSoC6/I2Cm.h **** ****************************************************************************//**
 244:Generated_Source\PSoC6/I2Cm.h **** *
 245:Generated_Source\PSoC6/I2Cm.h **** * Invokes the Cy_SCB_I2C_RegisterEventCallback() PDL driver function.
ARM GAS  C:\Users\arnau\AppData\Local\Temp\ccPQAG8K.s 			page 8


 246:Generated_Source\PSoC6/I2Cm.h **** *
 247:Generated_Source\PSoC6/I2Cm.h **** *******************************************************************************/
 248:Generated_Source\PSoC6/I2Cm.h **** __STATIC_INLINE void I2Cm_RegisterEventCallback(cy_cb_scb_i2c_handle_events_t callback)
 249:Generated_Source\PSoC6/I2Cm.h **** {
 250:Generated_Source\PSoC6/I2Cm.h ****     Cy_SCB_I2C_RegisterEventCallback(I2Cm_HW, callback, &I2Cm_context);
 251:Generated_Source\PSoC6/I2Cm.h **** }
 252:Generated_Source\PSoC6/I2Cm.h **** 
 253:Generated_Source\PSoC6/I2Cm.h **** 
 254:Generated_Source\PSoC6/I2Cm.h **** #if (I2Cm_ENABLE_SLAVE)
 255:Generated_Source\PSoC6/I2Cm.h **** /*******************************************************************************
 256:Generated_Source\PSoC6/I2Cm.h **** * Function Name: I2Cm_RegisterAddrCallback
 257:Generated_Source\PSoC6/I2Cm.h **** ****************************************************************************//**
 258:Generated_Source\PSoC6/I2Cm.h **** *
 259:Generated_Source\PSoC6/I2Cm.h **** * Invokes the Cy_SCB_I2C_RegisterAddrCallback() PDL driver function.
 260:Generated_Source\PSoC6/I2Cm.h **** *
 261:Generated_Source\PSoC6/I2Cm.h **** *******************************************************************************/
 262:Generated_Source\PSoC6/I2Cm.h **** __STATIC_INLINE void I2Cm_RegisterAddrCallback(cy_cb_scb_i2c_handle_addr_t callback)
 263:Generated_Source\PSoC6/I2Cm.h **** {
 264:Generated_Source\PSoC6/I2Cm.h ****     Cy_SCB_I2C_RegisterAddrCallback(I2Cm_HW, callback, &I2Cm_context);
 265:Generated_Source\PSoC6/I2Cm.h **** }
 266:Generated_Source\PSoC6/I2Cm.h **** #endif /* (I2Cm_ENABLE_SLAVE) */
 267:Generated_Source\PSoC6/I2Cm.h **** 
 268:Generated_Source\PSoC6/I2Cm.h **** 
 269:Generated_Source\PSoC6/I2Cm.h **** /*******************************************************************************
 270:Generated_Source\PSoC6/I2Cm.h **** * Function Name: I2Cm_IsBusBusy
 271:Generated_Source\PSoC6/I2Cm.h **** ****************************************************************************//**
 272:Generated_Source\PSoC6/I2Cm.h **** *
 273:Generated_Source\PSoC6/I2Cm.h **** * Invokes the Cy_SCB_I2C_IsBusBusy() PDL driver function.
 274:Generated_Source\PSoC6/I2Cm.h **** *
 275:Generated_Source\PSoC6/I2Cm.h **** *******************************************************************************/
 276:Generated_Source\PSoC6/I2Cm.h **** __STATIC_INLINE bool I2Cm_IsBusBusy(void)
 277:Generated_Source\PSoC6/I2Cm.h **** {
 278:Generated_Source\PSoC6/I2Cm.h ****     return Cy_SCB_I2C_IsBusBusy(I2Cm_HW);
 279:Generated_Source\PSoC6/I2Cm.h **** }
 280:Generated_Source\PSoC6/I2Cm.h **** 
 281:Generated_Source\PSoC6/I2Cm.h **** 
 282:Generated_Source\PSoC6/I2Cm.h **** #if (I2Cm_ENABLE_SLAVE)
 283:Generated_Source\PSoC6/I2Cm.h **** /*******************************************************************************
 284:Generated_Source\PSoC6/I2Cm.h **** * Function Name: I2Cm_SlaveSetAddress
 285:Generated_Source\PSoC6/I2Cm.h **** ****************************************************************************//**
 286:Generated_Source\PSoC6/I2Cm.h **** *
 287:Generated_Source\PSoC6/I2Cm.h **** * Invokes the Cy_SCB_I2C_SlaveGetAddress() PDL driver function.
 288:Generated_Source\PSoC6/I2Cm.h **** *
 289:Generated_Source\PSoC6/I2Cm.h **** *******************************************************************************/
 290:Generated_Source\PSoC6/I2Cm.h **** __STATIC_INLINE void I2Cm_SlaveSetAddress(uint8_t addr)
 291:Generated_Source\PSoC6/I2Cm.h **** {
 292:Generated_Source\PSoC6/I2Cm.h ****     Cy_SCB_I2C_SlaveSetAddress(I2Cm_HW, addr);
 293:Generated_Source\PSoC6/I2Cm.h **** }
 294:Generated_Source\PSoC6/I2Cm.h **** 
 295:Generated_Source\PSoC6/I2Cm.h **** 
 296:Generated_Source\PSoC6/I2Cm.h **** /*******************************************************************************
 297:Generated_Source\PSoC6/I2Cm.h **** * Function Name: I2Cm_SlaveGetAddress
 298:Generated_Source\PSoC6/I2Cm.h **** ****************************************************************************//**
 299:Generated_Source\PSoC6/I2Cm.h **** *
 300:Generated_Source\PSoC6/I2Cm.h **** * Invokes the Cy_SCB_I2C_SlaveGetAddress() PDL driver function.
 301:Generated_Source\PSoC6/I2Cm.h **** *
 302:Generated_Source\PSoC6/I2Cm.h **** *******************************************************************************/
ARM GAS  C:\Users\arnau\AppData\Local\Temp\ccPQAG8K.s 			page 9


 303:Generated_Source\PSoC6/I2Cm.h **** __STATIC_INLINE uint32_t I2Cm_SlaveGetAddress(void)
 304:Generated_Source\PSoC6/I2Cm.h **** {
 305:Generated_Source\PSoC6/I2Cm.h ****     return Cy_SCB_I2C_SlaveGetAddress(I2Cm_HW);
 306:Generated_Source\PSoC6/I2Cm.h **** }
 307:Generated_Source\PSoC6/I2Cm.h **** 
 308:Generated_Source\PSoC6/I2Cm.h **** 
 309:Generated_Source\PSoC6/I2Cm.h **** /*******************************************************************************
 310:Generated_Source\PSoC6/I2Cm.h **** * Function Name: I2Cm_SlaveSetAddressMask
 311:Generated_Source\PSoC6/I2Cm.h **** ****************************************************************************//**
 312:Generated_Source\PSoC6/I2Cm.h **** *
 313:Generated_Source\PSoC6/I2Cm.h **** * Invokes the Cy_SCB_I2C_SlaveSetAddressMask() PDL driver function.
 314:Generated_Source\PSoC6/I2Cm.h **** *
 315:Generated_Source\PSoC6/I2Cm.h **** *******************************************************************************/
 316:Generated_Source\PSoC6/I2Cm.h **** __STATIC_INLINE void I2Cm_SlaveSetAddressMask(uint8_t addrMask)
 317:Generated_Source\PSoC6/I2Cm.h **** {
 318:Generated_Source\PSoC6/I2Cm.h ****     Cy_SCB_I2C_SlaveSetAddressMask(I2Cm_HW, addrMask);
 319:Generated_Source\PSoC6/I2Cm.h **** }
 320:Generated_Source\PSoC6/I2Cm.h **** 
 321:Generated_Source\PSoC6/I2Cm.h **** 
 322:Generated_Source\PSoC6/I2Cm.h **** /*******************************************************************************
 323:Generated_Source\PSoC6/I2Cm.h **** * Function Name: I2Cm_SlaveGetAddressMask
 324:Generated_Source\PSoC6/I2Cm.h **** ****************************************************************************//**
 325:Generated_Source\PSoC6/I2Cm.h **** *
 326:Generated_Source\PSoC6/I2Cm.h **** * Invokes the Cy_SCB_I2C_SlaveGetAddressMask() PDL driver function.
 327:Generated_Source\PSoC6/I2Cm.h **** *
 328:Generated_Source\PSoC6/I2Cm.h **** *******************************************************************************/
 329:Generated_Source\PSoC6/I2Cm.h **** __STATIC_INLINE uint32_t I2Cm_SlaveGetAddressMask(void)
 330:Generated_Source\PSoC6/I2Cm.h **** {
 331:Generated_Source\PSoC6/I2Cm.h ****     return Cy_SCB_I2C_SlaveGetAddressMask(I2Cm_HW);
 332:Generated_Source\PSoC6/I2Cm.h **** }
 333:Generated_Source\PSoC6/I2Cm.h **** #endif /* (I2Cm_ENABLE_SLAVE) */
 334:Generated_Source\PSoC6/I2Cm.h **** 
 335:Generated_Source\PSoC6/I2Cm.h **** #if (I2Cm_ENABLE_MASTER)
 336:Generated_Source\PSoC6/I2Cm.h **** /*******************************************************************************
 337:Generated_Source\PSoC6/I2Cm.h **** * Function Name: I2Cm_MasterSetLowPhaseDutyCycle
 338:Generated_Source\PSoC6/I2Cm.h **** ****************************************************************************//**
 339:Generated_Source\PSoC6/I2Cm.h **** *
 340:Generated_Source\PSoC6/I2Cm.h **** * Invokes the Cy_SCB_I2C_MasterSetLowPhaseDutyCycle() PDL driver function.
 341:Generated_Source\PSoC6/I2Cm.h **** *
 342:Generated_Source\PSoC6/I2Cm.h **** *******************************************************************************/
 343:Generated_Source\PSoC6/I2Cm.h **** __STATIC_INLINE void I2Cm_MasterSetLowPhaseDutyCycle(uint32_t clockCycles)
 344:Generated_Source\PSoC6/I2Cm.h **** {
 345:Generated_Source\PSoC6/I2Cm.h ****     Cy_SCB_I2C_MasterSetLowPhaseDutyCycle(I2Cm_HW, clockCycles);
 346:Generated_Source\PSoC6/I2Cm.h **** }
 347:Generated_Source\PSoC6/I2Cm.h **** 
 348:Generated_Source\PSoC6/I2Cm.h **** 
 349:Generated_Source\PSoC6/I2Cm.h **** /*******************************************************************************
 350:Generated_Source\PSoC6/I2Cm.h **** * Function Name: I2Cm_MasterSetHighPhaseDutyCycle
 351:Generated_Source\PSoC6/I2Cm.h **** ****************************************************************************//**
 352:Generated_Source\PSoC6/I2Cm.h **** *
 353:Generated_Source\PSoC6/I2Cm.h **** * Invokes the Cy_SCB_I2C_MasterSetHighPhaseDutyCycle() PDL driver function.
 354:Generated_Source\PSoC6/I2Cm.h **** *
 355:Generated_Source\PSoC6/I2Cm.h **** *******************************************************************************/
 356:Generated_Source\PSoC6/I2Cm.h **** __STATIC_INLINE void I2Cm_MasterSetHighPhaseDutyCycle(uint32_t clockCycles)
 357:Generated_Source\PSoC6/I2Cm.h **** {
 358:Generated_Source\PSoC6/I2Cm.h ****     Cy_SCB_I2C_MasterSetHighPhaseDutyCycle(I2Cm_HW, clockCycles);
 359:Generated_Source\PSoC6/I2Cm.h **** }
ARM GAS  C:\Users\arnau\AppData\Local\Temp\ccPQAG8K.s 			page 10


 360:Generated_Source\PSoC6/I2Cm.h **** #endif /* (I2Cm_ENABLE_MASTER) */
 361:Generated_Source\PSoC6/I2Cm.h **** 
 362:Generated_Source\PSoC6/I2Cm.h **** 
 363:Generated_Source\PSoC6/I2Cm.h **** #if (I2Cm_ENABLE_SLAVE)
 364:Generated_Source\PSoC6/I2Cm.h **** /*******************************************************************************
 365:Generated_Source\PSoC6/I2Cm.h **** * Function Name: I2Cm_SlaveGetStatus
 366:Generated_Source\PSoC6/I2Cm.h **** ****************************************************************************//**
 367:Generated_Source\PSoC6/I2Cm.h **** *
 368:Generated_Source\PSoC6/I2Cm.h **** * Invokes the Cy_SCB_I2C_SlaveGetStatus() PDL driver function.
 369:Generated_Source\PSoC6/I2Cm.h **** *
 370:Generated_Source\PSoC6/I2Cm.h **** *******************************************************************************/
 371:Generated_Source\PSoC6/I2Cm.h **** __STATIC_INLINE uint32_t I2Cm_SlaveGetStatus(void)
 372:Generated_Source\PSoC6/I2Cm.h **** {
 373:Generated_Source\PSoC6/I2Cm.h ****     return Cy_SCB_I2C_SlaveGetStatus(I2Cm_HW, &I2Cm_context);
 374:Generated_Source\PSoC6/I2Cm.h **** }
 375:Generated_Source\PSoC6/I2Cm.h **** 
 376:Generated_Source\PSoC6/I2Cm.h **** 
 377:Generated_Source\PSoC6/I2Cm.h **** /*******************************************************************************
 378:Generated_Source\PSoC6/I2Cm.h **** * Function Name: I2Cm_SlaveConfigReadBuf
 379:Generated_Source\PSoC6/I2Cm.h **** ****************************************************************************//**
 380:Generated_Source\PSoC6/I2Cm.h **** *
 381:Generated_Source\PSoC6/I2Cm.h **** * Invokes the Cy_SCB_I2C_SlaveConfigReadBuf() PDL driver function.
 382:Generated_Source\PSoC6/I2Cm.h **** *
 383:Generated_Source\PSoC6/I2Cm.h **** *******************************************************************************/
 384:Generated_Source\PSoC6/I2Cm.h **** __STATIC_INLINE void I2Cm_SlaveConfigReadBuf(uint8_t *buffer, uint32_t size)
 385:Generated_Source\PSoC6/I2Cm.h **** {
 386:Generated_Source\PSoC6/I2Cm.h ****     Cy_SCB_I2C_SlaveConfigReadBuf(I2Cm_HW, buffer, size, &I2Cm_context);
 387:Generated_Source\PSoC6/I2Cm.h **** }
 388:Generated_Source\PSoC6/I2Cm.h **** 
 389:Generated_Source\PSoC6/I2Cm.h **** 
 390:Generated_Source\PSoC6/I2Cm.h **** /*******************************************************************************
 391:Generated_Source\PSoC6/I2Cm.h **** * Function Name: I2Cm_SlaveAbortRead
 392:Generated_Source\PSoC6/I2Cm.h **** ****************************************************************************//**
 393:Generated_Source\PSoC6/I2Cm.h **** *
 394:Generated_Source\PSoC6/I2Cm.h **** * Invokes the Cy_SCB_I2C_SlaveAbortRead() PDL driver function.
 395:Generated_Source\PSoC6/I2Cm.h **** *
 396:Generated_Source\PSoC6/I2Cm.h **** *******************************************************************************/
 397:Generated_Source\PSoC6/I2Cm.h **** __STATIC_INLINE void I2Cm_SlaveAbortRead(void)
 398:Generated_Source\PSoC6/I2Cm.h **** {
 399:Generated_Source\PSoC6/I2Cm.h ****     Cy_SCB_I2C_SlaveAbortRead(I2Cm_HW, &I2Cm_context);
 400:Generated_Source\PSoC6/I2Cm.h **** }
 401:Generated_Source\PSoC6/I2Cm.h **** 
 402:Generated_Source\PSoC6/I2Cm.h **** 
 403:Generated_Source\PSoC6/I2Cm.h **** /*******************************************************************************
 404:Generated_Source\PSoC6/I2Cm.h **** * Function Name: I2Cm_SlaveGetReadTransferCount
 405:Generated_Source\PSoC6/I2Cm.h **** ****************************************************************************//**
 406:Generated_Source\PSoC6/I2Cm.h **** *
 407:Generated_Source\PSoC6/I2Cm.h **** * Invokes the Cy_SCB_I2C_SlaveGetReadTransferCount() PDL driver function.
 408:Generated_Source\PSoC6/I2Cm.h **** *
 409:Generated_Source\PSoC6/I2Cm.h **** *******************************************************************************/
 410:Generated_Source\PSoC6/I2Cm.h **** __STATIC_INLINE uint32_t I2Cm_SlaveGetReadTransferCount(void)
 411:Generated_Source\PSoC6/I2Cm.h **** {
 412:Generated_Source\PSoC6/I2Cm.h ****     return Cy_SCB_I2C_SlaveGetReadTransferCount(I2Cm_HW, &I2Cm_context);
 413:Generated_Source\PSoC6/I2Cm.h **** }
 414:Generated_Source\PSoC6/I2Cm.h **** 
 415:Generated_Source\PSoC6/I2Cm.h **** 
 416:Generated_Source\PSoC6/I2Cm.h **** /*******************************************************************************
ARM GAS  C:\Users\arnau\AppData\Local\Temp\ccPQAG8K.s 			page 11


 417:Generated_Source\PSoC6/I2Cm.h **** * Function Name: I2Cm_SlaveClearReadStatus
 418:Generated_Source\PSoC6/I2Cm.h **** ****************************************************************************//**
 419:Generated_Source\PSoC6/I2Cm.h **** *
 420:Generated_Source\PSoC6/I2Cm.h **** * Invokes the Cy_SCB_I2C_SlaveClearReadStatus() PDL driver function.
 421:Generated_Source\PSoC6/I2Cm.h **** *
 422:Generated_Source\PSoC6/I2Cm.h **** *******************************************************************************/
 423:Generated_Source\PSoC6/I2Cm.h **** __STATIC_INLINE uint32_t I2Cm_SlaveClearReadStatus(void)
 424:Generated_Source\PSoC6/I2Cm.h **** {
 425:Generated_Source\PSoC6/I2Cm.h ****     return Cy_SCB_I2C_SlaveClearReadStatus(I2Cm_HW, &I2Cm_context);
 426:Generated_Source\PSoC6/I2Cm.h **** }
 427:Generated_Source\PSoC6/I2Cm.h **** 
 428:Generated_Source\PSoC6/I2Cm.h **** 
 429:Generated_Source\PSoC6/I2Cm.h **** /*******************************************************************************
 430:Generated_Source\PSoC6/I2Cm.h **** * Function Name: I2Cm_SlaveConfigWriteBuf
 431:Generated_Source\PSoC6/I2Cm.h **** ****************************************************************************//**
 432:Generated_Source\PSoC6/I2Cm.h **** *
 433:Generated_Source\PSoC6/I2Cm.h **** * Invokes the Cy_SCB_I2C_SlaveConfigWriteBuf() PDL driver function.
 434:Generated_Source\PSoC6/I2Cm.h **** *
 435:Generated_Source\PSoC6/I2Cm.h **** *******************************************************************************/
 436:Generated_Source\PSoC6/I2Cm.h **** __STATIC_INLINE void I2Cm_SlaveConfigWriteBuf(uint8_t *buffer, uint32_t size)
 437:Generated_Source\PSoC6/I2Cm.h **** {
 438:Generated_Source\PSoC6/I2Cm.h ****     Cy_SCB_I2C_SlaveConfigWriteBuf(I2Cm_HW, buffer, size, &I2Cm_context);
 439:Generated_Source\PSoC6/I2Cm.h **** }
 440:Generated_Source\PSoC6/I2Cm.h **** 
 441:Generated_Source\PSoC6/I2Cm.h **** 
 442:Generated_Source\PSoC6/I2Cm.h **** /*******************************************************************************
 443:Generated_Source\PSoC6/I2Cm.h **** * Function Name: I2Cm_SlaveAbortWrite
 444:Generated_Source\PSoC6/I2Cm.h **** ****************************************************************************//**
 445:Generated_Source\PSoC6/I2Cm.h **** *
 446:Generated_Source\PSoC6/I2Cm.h **** * Invokes the Cy_SCB_I2C_SlaveAbortWrite() PDL driver function.
 447:Generated_Source\PSoC6/I2Cm.h **** *
 448:Generated_Source\PSoC6/I2Cm.h **** *******************************************************************************/
 449:Generated_Source\PSoC6/I2Cm.h **** __STATIC_INLINE void I2Cm_SlaveAbortWrite(void)
 450:Generated_Source\PSoC6/I2Cm.h **** {
 451:Generated_Source\PSoC6/I2Cm.h ****     Cy_SCB_I2C_SlaveAbortWrite(I2Cm_HW, &I2Cm_context);
 452:Generated_Source\PSoC6/I2Cm.h **** }
 453:Generated_Source\PSoC6/I2Cm.h **** 
 454:Generated_Source\PSoC6/I2Cm.h **** 
 455:Generated_Source\PSoC6/I2Cm.h **** /*******************************************************************************
 456:Generated_Source\PSoC6/I2Cm.h **** * Function Name: I2Cm_SlaveGetWriteTransferCount
 457:Generated_Source\PSoC6/I2Cm.h **** ****************************************************************************//**
 458:Generated_Source\PSoC6/I2Cm.h **** *
 459:Generated_Source\PSoC6/I2Cm.h **** * Invokes the Cy_SCB_I2C_SlaveGetWriteTransferCount() PDL driver function.
 460:Generated_Source\PSoC6/I2Cm.h **** *
 461:Generated_Source\PSoC6/I2Cm.h **** *******************************************************************************/
 462:Generated_Source\PSoC6/I2Cm.h **** __STATIC_INLINE uint32_t I2Cm_SlaveGetWriteTransferCount(void)
 463:Generated_Source\PSoC6/I2Cm.h **** {
 464:Generated_Source\PSoC6/I2Cm.h ****     return Cy_SCB_I2C_SlaveGetWriteTransferCount(I2Cm_HW, &I2Cm_context);
 465:Generated_Source\PSoC6/I2Cm.h **** }
 466:Generated_Source\PSoC6/I2Cm.h **** 
 467:Generated_Source\PSoC6/I2Cm.h **** 
 468:Generated_Source\PSoC6/I2Cm.h **** /*******************************************************************************
 469:Generated_Source\PSoC6/I2Cm.h **** * Function Name: I2Cm_SlaveClearWriteStatus
 470:Generated_Source\PSoC6/I2Cm.h **** ****************************************************************************//**
 471:Generated_Source\PSoC6/I2Cm.h **** *
 472:Generated_Source\PSoC6/I2Cm.h **** * Invokes the Cy_SCB_I2C_SlaveClearWriteStatus() PDL driver function.
 473:Generated_Source\PSoC6/I2Cm.h **** *
ARM GAS  C:\Users\arnau\AppData\Local\Temp\ccPQAG8K.s 			page 12


 474:Generated_Source\PSoC6/I2Cm.h **** *******************************************************************************/
 475:Generated_Source\PSoC6/I2Cm.h **** __STATIC_INLINE uint32_t I2Cm_SlaveClearWriteStatus(void)
 476:Generated_Source\PSoC6/I2Cm.h **** {
 477:Generated_Source\PSoC6/I2Cm.h ****     return Cy_SCB_I2C_SlaveClearWriteStatus(I2Cm_HW, &I2Cm_context);
 478:Generated_Source\PSoC6/I2Cm.h **** }
 479:Generated_Source\PSoC6/I2Cm.h **** #endif /* (I2Cm_ENABLE_SLAVE) */
 480:Generated_Source\PSoC6/I2Cm.h **** 
 481:Generated_Source\PSoC6/I2Cm.h **** 
 482:Generated_Source\PSoC6/I2Cm.h **** #if (I2Cm_ENABLE_MASTER)
 483:Generated_Source\PSoC6/I2Cm.h **** /*******************************************************************************
 484:Generated_Source\PSoC6/I2Cm.h **** * Function Name: I2Cm_MasterGetStatus
 485:Generated_Source\PSoC6/I2Cm.h **** ****************************************************************************//**
 486:Generated_Source\PSoC6/I2Cm.h **** *
 487:Generated_Source\PSoC6/I2Cm.h **** * Invokes the Cy_SCB_I2C_MasterGetStatus() PDL driver function.
 488:Generated_Source\PSoC6/I2Cm.h **** *
 489:Generated_Source\PSoC6/I2Cm.h **** *******************************************************************************/
 490:Generated_Source\PSoC6/I2Cm.h **** __STATIC_INLINE uint32_t I2Cm_MasterGetStatus(void)
 491:Generated_Source\PSoC6/I2Cm.h **** {
 492:Generated_Source\PSoC6/I2Cm.h ****     return Cy_SCB_I2C_MasterGetStatus(I2Cm_HW, &I2Cm_context);
 493:Generated_Source\PSoC6/I2Cm.h **** }
 494:Generated_Source\PSoC6/I2Cm.h **** 
 495:Generated_Source\PSoC6/I2Cm.h **** 
 496:Generated_Source\PSoC6/I2Cm.h **** /*******************************************************************************
 497:Generated_Source\PSoC6/I2Cm.h **** * Function Name: I2Cm_MasterRead
 498:Generated_Source\PSoC6/I2Cm.h **** ****************************************************************************//**
 499:Generated_Source\PSoC6/I2Cm.h **** *
 500:Generated_Source\PSoC6/I2Cm.h **** * Invokes the Cy_SCB_I2C_MasterRead() PDL driver function.
 501:Generated_Source\PSoC6/I2Cm.h **** *
 502:Generated_Source\PSoC6/I2Cm.h **** *******************************************************************************/
 503:Generated_Source\PSoC6/I2Cm.h **** __STATIC_INLINE cy_en_scb_i2c_status_t I2Cm_MasterRead(cy_stc_scb_i2c_master_xfer_config_t *xferCon
 504:Generated_Source\PSoC6/I2Cm.h **** {
 505:Generated_Source\PSoC6/I2Cm.h ****     return Cy_SCB_I2C_MasterRead(I2Cm_HW, xferConfig, &I2Cm_context);
 506:Generated_Source\PSoC6/I2Cm.h **** }
 507:Generated_Source\PSoC6/I2Cm.h **** 
 508:Generated_Source\PSoC6/I2Cm.h **** 
 509:Generated_Source\PSoC6/I2Cm.h **** /*******************************************************************************
 510:Generated_Source\PSoC6/I2Cm.h **** * Function Name: I2Cm_MasterAbortRead
 511:Generated_Source\PSoC6/I2Cm.h **** ****************************************************************************//**
 512:Generated_Source\PSoC6/I2Cm.h **** *
 513:Generated_Source\PSoC6/I2Cm.h **** * Invokes the Cy_SCB_I2C_MasterAbortRead() PDL driver function.
 514:Generated_Source\PSoC6/I2Cm.h **** *
 515:Generated_Source\PSoC6/I2Cm.h **** ******************************************************************************/
 516:Generated_Source\PSoC6/I2Cm.h **** __STATIC_INLINE void I2Cm_MasterAbortRead(void)
 517:Generated_Source\PSoC6/I2Cm.h **** {
 518:Generated_Source\PSoC6/I2Cm.h ****     Cy_SCB_I2C_MasterAbortRead(I2Cm_HW, &I2Cm_context);
 519:Generated_Source\PSoC6/I2Cm.h **** }
 520:Generated_Source\PSoC6/I2Cm.h **** 
 521:Generated_Source\PSoC6/I2Cm.h **** 
 522:Generated_Source\PSoC6/I2Cm.h **** /*******************************************************************************
 523:Generated_Source\PSoC6/I2Cm.h **** * Function Name: I2Cm_MasterWrite
 524:Generated_Source\PSoC6/I2Cm.h **** ****************************************************************************//**
 525:Generated_Source\PSoC6/I2Cm.h **** *
 526:Generated_Source\PSoC6/I2Cm.h **** * Invokes the Cy_SCB_I2C_MasterWrite() PDL driver function.
 527:Generated_Source\PSoC6/I2Cm.h **** *
 528:Generated_Source\PSoC6/I2Cm.h **** *******************************************************************************/
 529:Generated_Source\PSoC6/I2Cm.h **** __STATIC_INLINE cy_en_scb_i2c_status_t I2Cm_MasterWrite(cy_stc_scb_i2c_master_xfer_config_t *xferCo
 530:Generated_Source\PSoC6/I2Cm.h **** {
ARM GAS  C:\Users\arnau\AppData\Local\Temp\ccPQAG8K.s 			page 13


 531:Generated_Source\PSoC6/I2Cm.h ****     return Cy_SCB_I2C_MasterWrite(I2Cm_HW, xferConfig, &I2Cm_context);
  71              		.loc 2 531 0
  72 002a 084A     		ldr	r2, .L3+4
  73 002c 6946     		mov	r1, sp
  74 002e 0848     		ldr	r0, .L3+8
  75 0030 FFF7FEFF 		bl	Cy_SCB_I2C_MasterWrite
  76              	.LVL6:
  77 0034 0446     		mov	r4, r0
  78              	.LVL7:
  79              	.LBE9:
  80              	.LBE8:
  84:i2cm_support.c ****         .xferPending = false
  85:i2cm_support.c ****     };
  86:i2cm_support.c ****     
  87:i2cm_support.c ****     /* Start I2C write and take the semaphore */
  88:i2cm_support.c ****     status = (unsigned int)I2Cm_MasterWrite(&config);
  89:i2cm_support.c ****     xSemaphoreTake(xSemaphoreI2C, portMAX_DELAY);
  81              		.loc 1 89 0
  82 0036 4FF0FF31 		mov	r1, #-1
  83 003a 064B     		ldr	r3, .L3+12
  84 003c 1868     		ldr	r0, [r3]
  85 003e FFF7FEFF 		bl	xQueueSemaphoreTake
  86              	.LVL8:
  90:i2cm_support.c ****         
  91:i2cm_support.c ****     return status;
  92:i2cm_support.c **** }
  87              		.loc 1 92 0
  88 0042 2046     		mov	r0, r4
  89 0044 05B0     		add	sp, sp, #20
  90              		.cfi_def_cfa_offset 20
  91              		@ sp needed
  92 0046 F0BD     		pop	{r4, r5, r6, r7, pc}
  93              	.LVL9:
  94              	.L4:
  95              		.align	2
  96              	.L3:
  97 0048 00000000 		.word	.LANCHOR0
  98 004c 00000000 		.word	I2Cm_context
  99 0050 00006440 		.word	1080295424
 100 0054 00000000 		.word	xSemaphoreI2C
 101              		.cfi_endproc
 102              	.LFE515:
 103              		.size	I2C_WriteBytes, .-I2C_WriteBytes
 104              		.section	.text.I2C_ReadBytes,"ax",%progbits
 105              		.align	2
 106              		.global	I2C_ReadBytes
 107              		.thumb
 108              		.thumb_func
 109              		.type	I2C_ReadBytes, %function
 110              	I2C_ReadBytes:
 111              	.LFB516:
  93:i2cm_support.c **** 
  94:i2cm_support.c **** /*******************************************************************************
  95:i2cm_support.c **** * Function Name: I2C_ReadBytes()
  96:i2cm_support.c **** ********************************************************************************
  97:i2cm_support.c **** * Summary:
  98:i2cm_support.c **** *  Function that reads data from an I2C slave device 
ARM GAS  C:\Users\arnau\AppData\Local\Temp\ccPQAG8K.s 			page 14


  99:i2cm_support.c **** *
 100:i2cm_support.c **** * Parameters:
 101:i2cm_support.c **** *  unsigned char Address        - I2C slave address
 102:i2cm_support.c **** *  unsigned char RegisterAddr   - register address to select gyro, accelerometer
 103:i2cm_support.c **** *                                 data
 104:i2cm_support.c **** *  unsigned char *RegisterValue - pointer to sensor data
 105:i2cm_support.c **** *  unsigned char  RegisterLen   - length of sensor data in bytes
 106:i2cm_support.c **** * Return:
 107:i2cm_support.c **** *  unsigned long status - status of I2C write operation
 108:i2cm_support.c **** *
 109:i2cm_support.c **** *******************************************************************************/ 
 110:i2cm_support.c **** unsigned int I2C_ReadBytes(uint8_t Address, uint8_t RegisterAddr, uint8_t *RegisterValue, uint8_t R
 111:i2cm_support.c **** {
 112              		.loc 1 111 0
 113              		.cfi_startproc
 114              		@ args = 0, pretend = 0, frame = 24
 115              		@ frame_needed = 0, uses_anonymous_args = 0
 116              	.LVL10:
 117 0000 F0B5     		push	{r4, r5, r6, r7, lr}
 118              		.cfi_def_cfa_offset 20
 119              		.cfi_offset 4, -20
 120              		.cfi_offset 5, -16
 121              		.cfi_offset 6, -12
 122              		.cfi_offset 7, -8
 123              		.cfi_offset 14, -4
 124 0002 87B0     		sub	sp, sp, #28
 125              		.cfi_def_cfa_offset 48
 126 0004 0546     		mov	r5, r0
 127 0006 1746     		mov	r7, r2
 128 0008 1E46     		mov	r6, r3
 129 000a 8DF80710 		strb	r1, [sp, #7]
 112:i2cm_support.c ****     /* Variable used for status of I2C operation */
 113:i2cm_support.c ****     static unsigned int status;
 114:i2cm_support.c ****     
 115:i2cm_support.c ****     /* Local variables for storing I2C Master transfer configuration structure */
 116:i2cm_support.c ****     cy_stc_scb_i2c_master_xfer_config_t config;
 117:i2cm_support.c ****     
 118:i2cm_support.c ****     config.slaveAddress = (uint32)Address;
 130              		.loc 1 118 0
 131 000e 8DF80800 		strb	r0, [sp, #8]
 119:i2cm_support.c ****     config.buffer       = &RegisterAddr;
 132              		.loc 1 119 0
 133 0012 0DF10703 		add	r3, sp, #7
 134              	.LVL11:
 135 0016 0393     		str	r3, [sp, #12]
 120:i2cm_support.c ****     config.bufferSize   = 1;
 136              		.loc 1 120 0
 137 0018 0123     		movs	r3, #1
 138 001a 0493     		str	r3, [sp, #16]
 121:i2cm_support.c ****     config.xferPending  = true;
 139              		.loc 1 121 0
 140 001c 8DF81430 		strb	r3, [sp, #20]
 141              	.LVL12:
 142              	.LBB10:
 143              	.LBB11:
 144              		.loc 2 531 0
 145 0020 124A     		ldr	r2, .L8
ARM GAS  C:\Users\arnau\AppData\Local\Temp\ccPQAG8K.s 			page 15


 146              	.LVL13:
 147 0022 02A9     		add	r1, sp, #8
 148              	.LVL14:
 149 0024 1248     		ldr	r0, .L8+4
 150              	.LVL15:
 151 0026 FFF7FEFF 		bl	Cy_SCB_I2C_MasterWrite
 152              	.LVL16:
 153              	.LBE11:
 154              	.LBE10:
 122:i2cm_support.c ****     
 123:i2cm_support.c ****     /* Start I2C write and take the semaphore */
 124:i2cm_support.c ****     status = (unsigned int)I2Cm_MasterWrite(&config);
 155              		.loc 1 124 0
 156 002a 124C     		ldr	r4, .L8+8
 157 002c E060     		str	r0, [r4, #12]
 125:i2cm_support.c ****     xSemaphoreTake(xSemaphoreI2C, portMAX_DELAY);
 158              		.loc 1 125 0
 159 002e 4FF0FF31 		mov	r1, #-1
 160 0032 114B     		ldr	r3, .L8+12
 161 0034 1868     		ldr	r0, [r3]
 162 0036 FFF7FEFF 		bl	xQueueSemaphoreTake
 163              	.LVL17:
 126:i2cm_support.c ****     
 127:i2cm_support.c ****     if(status == CY_SCB_I2C_SUCCESS)
 164              		.loc 1 127 0
 165 003a E368     		ldr	r3, [r4, #12]
 166 003c 8BB9     		cbnz	r3, .L6
 128:i2cm_support.c ****     {
 129:i2cm_support.c ****         config.slaveAddress = (uint32)Address;
 167              		.loc 1 129 0
 168 003e 8DF80850 		strb	r5, [sp, #8]
 130:i2cm_support.c ****         config.buffer =  RegisterValue;
 169              		.loc 1 130 0
 170 0042 0397     		str	r7, [sp, #12]
 131:i2cm_support.c ****         config.bufferSize = RegisterLen;
 171              		.loc 1 131 0
 172 0044 0496     		str	r6, [sp, #16]
 132:i2cm_support.c ****         config.xferPending = false;
 173              		.loc 1 132 0
 174 0046 8DF81430 		strb	r3, [sp, #20]
 175              	.LVL18:
 176              	.LBB12:
 177              	.LBB13:
 505:Generated_Source\PSoC6/I2Cm.h **** }
 178              		.loc 2 505 0
 179 004a 084A     		ldr	r2, .L8
 180 004c 02A9     		add	r1, sp, #8
 181              	.LVL19:
 182 004e 0848     		ldr	r0, .L8+4
 183 0050 FFF7FEFF 		bl	Cy_SCB_I2C_MasterRead
 184              	.LVL20:
 185              	.LBE13:
 186              	.LBE12:
 133:i2cm_support.c ****         
 134:i2cm_support.c ****         /* Start I2C read and take the semaphore */
 135:i2cm_support.c ****         status = (unsigned int)I2Cm_MasterRead(&config);
 187              		.loc 1 135 0
ARM GAS  C:\Users\arnau\AppData\Local\Temp\ccPQAG8K.s 			page 16


 188 0054 E060     		str	r0, [r4, #12]
 136:i2cm_support.c ****         xSemaphoreTake(xSemaphoreI2C, portMAX_DELAY);
 189              		.loc 1 136 0
 190 0056 4FF0FF31 		mov	r1, #-1
 191 005a 074B     		ldr	r3, .L8+12
 192 005c 1868     		ldr	r0, [r3]
 193 005e FFF7FEFF 		bl	xQueueSemaphoreTake
 194              	.LVL21:
 195              	.L6:
 137:i2cm_support.c ****     }
 138:i2cm_support.c ****     return status;
 139:i2cm_support.c **** }
 196              		.loc 1 139 0
 197 0062 044B     		ldr	r3, .L8+8
 198 0064 D868     		ldr	r0, [r3, #12]
 199 0066 07B0     		add	sp, sp, #28
 200              		.cfi_def_cfa_offset 20
 201              		@ sp needed
 202 0068 F0BD     		pop	{r4, r5, r6, r7, pc}
 203              	.LVL22:
 204              	.L9:
 205 006a 00BF     		.align	2
 206              	.L8:
 207 006c 00000000 		.word	I2Cm_context
 208 0070 00006440 		.word	1080295424
 209 0074 00000000 		.word	.LANCHOR0
 210 0078 00000000 		.word	xSemaphoreI2C
 211              		.cfi_endproc
 212              	.LFE516:
 213              		.size	I2C_ReadBytes, .-I2C_ReadBytes
 214              		.section	.text.I2C_Callback,"ax",%progbits
 215              		.align	2
 216              		.global	I2C_Callback
 217              		.thumb
 218              		.thumb_func
 219              		.type	I2C_Callback, %function
 220              	I2C_Callback:
 221              	.LFB517:
 140:i2cm_support.c **** 
 141:i2cm_support.c **** /*******************************************************************************
 142:i2cm_support.c **** * Function Name: void I2C_Callback(uint32_t events)
 143:i2cm_support.c **** ********************************************************************************
 144:i2cm_support.c **** *
 145:i2cm_support.c **** * Summary:
 146:i2cm_support.c **** *  Call back event function to handle interrupts from I2C
 147:i2cm_support.c **** *
 148:i2cm_support.c **** * Parameters:
 149:i2cm_support.c **** *  uint32_t events: 
 150:i2cm_support.c **** *   CY_SCB_I2C_MASTER_WR_IN_FIFO_EVENT - unused
 151:i2cm_support.c **** *   CY_SCB_I2C_MASTER_WR_CMPLT_EVENT - I2C maser write completed
 152:i2cm_support.c **** *   CY_SCB_I2C_MASTER_RD_CMPLT_EVENT - I2C master read completed
 153:i2cm_support.c **** *   CY_SCB_I2C_MASTER_ERR_EVENT - I2C hardware error detected
 154:i2cm_support.c **** *
 155:i2cm_support.c **** * Return:
 156:i2cm_support.c **** *  None
 157:i2cm_support.c **** *
 158:i2cm_support.c **** *******************************************************************************/
ARM GAS  C:\Users\arnau\AppData\Local\Temp\ccPQAG8K.s 			page 17


 159:i2cm_support.c **** void I2C_Callback(uint32_t events)
 160:i2cm_support.c **** {
 222              		.loc 1 160 0
 223              		.cfi_startproc
 224              		@ args = 0, pretend = 0, frame = 8
 225              		@ frame_needed = 0, uses_anonymous_args = 0
 226              	.LVL23:
 227 0000 00B5     		push	{lr}
 228              		.cfi_def_cfa_offset 4
 229              		.cfi_offset 14, -4
 230 0002 83B0     		sub	sp, sp, #12
 231              		.cfi_def_cfa_offset 16
 161:i2cm_support.c ****     BaseType_t xHigherPriorityTaskWoken;
 162:i2cm_support.c ****     /**
 163:i2cm_support.c ****      * Unblock the task by releasing the semaphore only if no hardware error is 
 164:i2cm_support.c ****      * detected and I2C master read or write is completed
 165:i2cm_support.c ****      */
 166:i2cm_support.c ****     if(events & CY_SCB_I2C_MASTER_ERR_EVENT)
 232              		.loc 1 166 0
 233 0004 10F4002F 		tst	r0, #524288
 234 0008 07D0     		beq	.L11
 167:i2cm_support.c ****     {
 168:i2cm_support.c ****         DebugPrintf("Failure!  : I2C hardware error detected\r\n");
 235              		.loc 1 168 0
 236 000a 0E48     		ldr	r0, .L14
 237              	.LVL24:
 238 000c FFF7FEFF 		bl	puts
 239              	.LVL25:
 169:i2cm_support.c ****         CY_ASSERT(0u); /* Halt CPU */
 240              		.loc 1 169 0
 241 0010 A921     		movs	r1, #169
 242 0012 0D48     		ldr	r0, .L14+4
 243 0014 FFF7FEFF 		bl	Cy_SysLib_AssertFailed
 244              	.LVL26:
 245 0018 11E0     		b	.L10
 246              	.LVL27:
 247              	.L11:
 170:i2cm_support.c ****     }
 171:i2cm_support.c ****     else if((events & CY_SCB_I2C_MASTER_WR_CMPLT_EVENT)|| 
 248              		.loc 1 171 0
 249 001a 10F4C02F 		tst	r0, #393216
 250 001e 0ED0     		beq	.L10
 172:i2cm_support.c ****             (events & CY_SCB_I2C_MASTER_RD_CMPLT_EVENT))
 173:i2cm_support.c ****     {
 174:i2cm_support.c ****         xSemaphoreGiveFromISR(xSemaphoreI2C, &xHigherPriorityTaskWoken);
 251              		.loc 1 174 0
 252 0020 01A9     		add	r1, sp, #4
 253 0022 0A4B     		ldr	r3, .L14+8
 254 0024 1868     		ldr	r0, [r3]
 255              	.LVL28:
 256 0026 FFF7FEFF 		bl	xQueueGiveFromISR
 257              	.LVL29:
 175:i2cm_support.c ****         portYIELD_FROM_ISR(xHigherPriorityTaskWoken);
 258              		.loc 1 175 0
 259 002a 019B     		ldr	r3, [sp, #4]
 260 002c 3BB1     		cbz	r3, .L10
 261              		.loc 1 175 0 is_stmt 0 discriminator 1
ARM GAS  C:\Users\arnau\AppData\Local\Temp\ccPQAG8K.s 			page 18


 262 002e 4FF08052 		mov	r2, #268435456
 263 0032 074B     		ldr	r3, .L14+12
 264 0034 1A60     		str	r2, [r3]
 265              		.syntax unified
 266              	@ 175 "i2cm_support.c" 1
 267 0036 BFF34F8F 		dsb
 268              	@ 0 "" 2
 269              	@ 175 "i2cm_support.c" 1
 270 003a BFF36F8F 		isb
 271              	@ 0 "" 2
 272              		.thumb
 273              		.syntax unified
 274              	.L10:
 176:i2cm_support.c ****     }
 177:i2cm_support.c **** }
 275              		.loc 1 177 0 is_stmt 1
 276 003e 03B0     		add	sp, sp, #12
 277              		.cfi_def_cfa_offset 4
 278              		@ sp needed
 279 0040 5DF804FB 		ldr	pc, [sp], #4
 280              	.L15:
 281              		.align	2
 282              	.L14:
 283 0044 00000000 		.word	.LC0
 284 0048 2C000000 		.word	.LC1
 285 004c 00000000 		.word	xSemaphoreI2C
 286 0050 04ED00E0 		.word	-536810236
 287              		.cfi_endproc
 288              	.LFE517:
 289              		.size	I2C_Callback, .-I2C_Callback
 290              		.comm	xSemaphoreI2C,4,4
 291              		.section	.rodata.str1.4,"aMS",%progbits,1
 292              		.align	2
 293              	.LC0:
 294 0000 4661696C 		.ascii	"Failure!  : I2C hardware error detected\015\000"
 294      75726521 
 294      20203A20 
 294      49324320 
 294      68617264 
 295 0029 000000   		.space	3
 296              	.LC1:
 297 002c 6932636D 		.ascii	"i2cm_support.c\000"
 297      5F737570 
 297      706F7274 
 297      2E6300
 298              		.bss
 299              		.align	2
 300              		.set	.LANCHOR0,. + 0
 301              		.type	tempBuff.17056, %object
 302              		.size	tempBuff.17056, 10
 303              	tempBuff.17056:
 304 0000 00000000 		.space	10
 304      00000000 
 304      0000
 305 000a 0000     		.space	2
 306              		.type	status.17064, %object
 307              		.size	status.17064, 4
ARM GAS  C:\Users\arnau\AppData\Local\Temp\ccPQAG8K.s 			page 19


 308              	status.17064:
 309 000c 00000000 		.space	4
 310              		.text
 311              	.Letext0:
 312              		.file 3 "c:\\program files (x86)\\cypress\\psoc creator\\4.4\\psoc creator\\import\\gnu\\arm\\5.4.
 313              		.file 4 "c:\\program files (x86)\\cypress\\psoc creator\\4.4\\psoc creator\\import\\gnu\\arm\\5.4.
 314              		.file 5 "Generated_Source\\PSoC6\\pdl\\devices/psoc6/include/ip/cyip_scb.h"
 315              		.file 6 "Generated_Source\\PSoC6\\pdl\\devices/psoc6/include/psoc6_01_config.h"
 316              		.file 7 "Generated_Source\\PSoC6\\pdl\\drivers/peripheral/device/cy_device.h"
 317              		.file 8 "Generated_Source\\PSoC6\\pdl\\drivers/peripheral/syslib/cy_syslib.h"
 318              		.file 9 "Generated_Source\\PSoC6\\pdl\\drivers/peripheral/scb/cy_scb_i2c.h"
 319              		.file 10 "Generated_Source\\PSoC6\\pdl\\drivers/peripheral/scb/cy_scb_uart.h"
 320              		.file 11 "Generated_Source\\PSoC6\\pdl\\rtos/FreeRTOS/10.0.1/Source/portable/GCC/CM4F/portmacro.h"
 321              		.file 12 "Generated_Source\\PSoC6\\pdl\\rtos/FreeRTOS/10.0.1/Source/include/queue.h"
 322              		.file 13 "Generated_Source\\PSoC6\\pdl\\rtos/FreeRTOS/10.0.1/Source/include/semphr.h"
 323              		.file 14 ".\\CMSIS\\Core\\Include/core_cm4.h"
 324              		.file 15 "Generated_Source\\PSoC6/DEBUG_UART.h"
 325              		.file 16 "uart_debug.h"
 326              		.file 17 "<built-in>"