ARM GAS  C:\Users\Parsa\AppData\Local\Temp\ccuXhMxX.s 			page 1


   1              		.syntax unified
   2              		.cpu cortex-m4
   3              		.eabi_attribute 27, 1
   4              		.fpu fpv4-sp-d16
   5              		.eabi_attribute 20, 1
   6              		.eabi_attribute 21, 1
   7              		.eabi_attribute 23, 3
   8              		.eabi_attribute 24, 1
   9              		.eabi_attribute 25, 1
  10              		.eabi_attribute 26, 1
  11              		.eabi_attribute 30, 1
  12              		.eabi_attribute 34, 1
  13              		.eabi_attribute 18, 4
  14              		.thumb
  15              		.syntax unified
  16              		.file	"main_cm4.c"
  17              		.text
  18              	.Ltext0:
  19              		.cfi_sections	.debug_frame
  20              		.section	.text.main,"ax",%progbits
  21              		.align	2
  22              		.global	main
  23              		.thumb
  24              		.thumb_func
  25              		.type	main, %function
  26              	main:
  27              	.LFB515:
  28              		.file 1 "main_cm4.c"
   1:main_cm4.c    **** /******************************************************************************
   2:main_cm4.c    **** * File Name: main_cm4.c
   3:main_cm4.c    **** *
   4:main_cm4.c    **** *
   5:main_cm4.c    **** *******************************************************************************/
   6:main_cm4.c    **** /* Header file includes */
   7:main_cm4.c    **** #include "project.h"
   8:main_cm4.c    **** #include "FreeRTOS.h"
   9:main_cm4.c    **** #include "task.h"
  10:main_cm4.c    **** #include "queue.h"
  11:main_cm4.c    **** #include "motion_task.h"
  12:main_cm4.c    **** #include "uart_debug.h" 
  13:main_cm4.c    **** 
  14:main_cm4.c    **** /* Priority of user tasks in this project */
  15:main_cm4.c    **** #define TASK_MOTION_SENSOR_PRIORITY (configMAX_PRIORITIES - 1)
  16:main_cm4.c    **** 
  17:main_cm4.c    **** /* Stack size of user tasks in this project */
  18:main_cm4.c    **** #define TASK_MOTION_SENSOR_STACK_SIZE   (configMINIMAL_STACK_SIZE)
  19:main_cm4.c    **** 
  20:main_cm4.c    **** /*******************************************************************************
  21:main_cm4.c    **** * Function Name: main
  22:main_cm4.c    **** ********************************************************************************
  23:main_cm4.c    **** * Summary:
  24:main_cm4.c    **** *  System entrance point. This function sets up user tasks and then starts 
  25:main_cm4.c    **** *  the RTOS scheduler.
  26:main_cm4.c    **** *
  27:main_cm4.c    **** * Parameters:
  28:main_cm4.c    **** *  None
  29:main_cm4.c    **** *
ARM GAS  C:\Users\Parsa\AppData\Local\Temp\ccuXhMxX.s 			page 2


  30:main_cm4.c    **** * Return:
  31:main_cm4.c    **** *  int
  32:main_cm4.c    **** *
  33:main_cm4.c    **** *******************************************************************************/
  34:main_cm4.c    **** int main()
  35:main_cm4.c    **** {            
  29              		.loc 1 35 0
  30              		.cfi_startproc
  31              		@ Volatile: function does not return.
  32              		@ args = 0, pretend = 0, frame = 0
  33              		@ frame_needed = 0, uses_anonymous_args = 0
  34 0000 00B5     		push	{lr}
  35              		.cfi_def_cfa_offset 4
  36              		.cfi_offset 14, -4
  37 0002 83B0     		sub	sp, sp, #12
  38              		.cfi_def_cfa_offset 16
  36:main_cm4.c    ****     /* Initialize the hardware used to send debug messages. */
  37:main_cm4.c    ****     DebugPrintfInit();
  39              		.loc 1 37 0
  40 0004 FFF7FEFF 		bl	DEBUG_UART_Start
  41              	.LVL0:
  38:main_cm4.c    ****     
  39:main_cm4.c    ****     /* \x1b[2J\x1b[;H - ANSI ESC sequence to clear screen */
  40:main_cm4.c    ****     DebugPrintf("\x1b[2J\x1b[;H");
  42              		.loc 1 40 0
  43 0008 1448     		ldr	r0, .L4
  44 000a FFF7FEFF 		bl	printf
  45              	.LVL1:
  41:main_cm4.c    ****     DebugPrintf("PSoC 6 MCU: Interfacing BMI160 (I2C) in FreeRTOS\r\n");
  46              		.loc 1 41 0
  47 000e 1448     		ldr	r0, .L4+4
  48 0010 FFF7FEFF 		bl	puts
  49              	.LVL2:
  42:main_cm4.c    ****     
  43:main_cm4.c    ****     /* Create the user Tasks. See the respective Task definition for more
  44:main_cm4.c    ****        details of these tasks */       
  45:main_cm4.c    ****     xTaskCreate(Task_Motion, "Motion Task", TASK_MOTION_SENSOR_STACK_SIZE,
  50              		.loc 1 45 0
  51 0014 134B     		ldr	r3, .L4+8
  52 0016 0193     		str	r3, [sp, #4]
  53 0018 1323     		movs	r3, #19
  54 001a 0093     		str	r3, [sp]
  55 001c 0023     		movs	r3, #0
  56 001e 8022     		movs	r2, #128
  57 0020 1149     		ldr	r1, .L4+12
  58 0022 1248     		ldr	r0, .L4+16
  59 0024 FFF7FEFF 		bl	xTaskCreate
  60              	.LVL3:
  61              	.LBB4:
  62              	.LBB5:
  63              		.file 2 "uart_debug.h"
   1:uart_debug.h  **** /******************************************************************************
   2:uart_debug.h  **** * File Name: uart_debug.h
   3:uart_debug.h  **** *
   4:uart_debug.h  **** * Version: 1.0
   5:uart_debug.h  **** *
   6:uart_debug.h  **** * Description: This file contains the macros that are used for UART based 
ARM GAS  C:\Users\Parsa\AppData\Local\Temp\ccuXhMxX.s 			page 3


   7:uart_debug.h  **** *              debug
   8:uart_debug.h  **** *
   9:uart_debug.h  **** * Related Document: CE223468_PSoC6_Interfacing_BMI160(I2C)_FreeRTOS.pdf
  10:uart_debug.h  **** *
  11:uart_debug.h  **** * Hardware Dependency: CY8CKIT-062-BLE PSoC 6 BLE Pioneer Kit
  12:uart_debug.h  **** *
  13:uart_debug.h  **** *******************************************************************************
  14:uart_debug.h  **** * Copyright (2018), Cypress Semiconductor Corporation. All rights reserved.
  15:uart_debug.h  **** *******************************************************************************
  16:uart_debug.h  **** * This software, including source code, documentation and related materials
  17:uart_debug.h  **** * (“Software”), is owned by Cypress Semiconductor Corporation or one of its
  18:uart_debug.h  **** * subsidiaries (“Cypress”) and is protected by and subject to worldwide patent
  19:uart_debug.h  **** * protection (United States and foreign), United States copyright laws and
  20:uart_debug.h  **** * international treaty provisions. Therefore, you may use this Software only
  21:uart_debug.h  **** * as provided in the license agreement accompanying the software package from
  22:uart_debug.h  **** * which you obtained this Software (“EULA”).
  23:uart_debug.h  **** *
  24:uart_debug.h  **** * If no EULA applies, Cypress hereby grants you a personal, nonexclusive,
  25:uart_debug.h  **** * non-transferable license to copy, modify, and compile the Software source
  26:uart_debug.h  **** * code solely for use in connection with Cypress’s integrated circuit products.
  27:uart_debug.h  **** * Any reproduction, modification, translation, compilation, or representation
  28:uart_debug.h  **** * of this Software except as specified above is prohibited without the express
  29:uart_debug.h  **** * written permission of Cypress.
  30:uart_debug.h  **** *
  31:uart_debug.h  **** * Disclaimer: THIS SOFTWARE IS PROVIDED AS-IS, WITH NO WARRANTY OF ANY KIND, 
  32:uart_debug.h  **** * EXPRESS OR IMPLIED, INCLUDING, BUT NOT LIMITED TO, NONINFRINGEMENT, IMPLIED 
  33:uart_debug.h  **** * WARRANTIES OF MERCHANTABILITY AND FITNESS FOR A PARTICULAR PURPOSE. Cypress 
  34:uart_debug.h  **** * reserves the right to make changes to the Software without notice. Cypress 
  35:uart_debug.h  **** * does not assume any liability arising out of the application or use of the 
  36:uart_debug.h  **** * Software or any product or circuit described in the Software. Cypress does 
  37:uart_debug.h  **** * not authorize its products for use in any products where a malfunction or 
  38:uart_debug.h  **** * failure of the Cypress product may reasonably be expected to result in 
  39:uart_debug.h  **** * significant property damage, injury or death (“High Risk Product”). By 
  40:uart_debug.h  **** * including Cypress’s product in a High Risk Product, the manufacturer of such 
  41:uart_debug.h  **** * system or application assumes all risk of such use and in doing so agrees to 
  42:uart_debug.h  **** * indemnify Cypress against all liability.
  43:uart_debug.h  **** *******************************************************************************/
  44:uart_debug.h  **** /******************************************************************************
  45:uart_debug.h  **** * This file contains the macros that are used for UART based debug. Note that 
  46:uart_debug.h  **** * enabling debug reduces performance and power efficiency. It also increases 
  47:uart_debug.h  **** * the code size.
  48:uart_debug.h  **** *
  49:uart_debug.h  **** * If the debug is enabled, you should set up a serial port terminal emulator 
  50:uart_debug.h  **** * such as Tera Term, or HyperTerminal with these settings to view the debug
  51:uart_debug.h  **** * information :
  52:uart_debug.h  **** *
  53:uart_debug.h  **** *   Baud rate     :  115200
  54:uart_debug.h  **** *   Data size     :  8-bit
  55:uart_debug.h  **** *   Parity        :  None
  56:uart_debug.h  **** *   Stop          :  1-bit
  57:uart_debug.h  **** *   Flow Control  :  None  
  58:uart_debug.h  **** *******************************************************************************/
  59:uart_debug.h  **** 
  60:uart_debug.h  **** /* Include guard */
  61:uart_debug.h  **** #ifndef UART_DEBUG_H
  62:uart_debug.h  **** #define UART_DEBUG_H
  63:uart_debug.h  **** 
ARM GAS  C:\Users\Parsa\AppData\Local\Temp\ccuXhMxX.s 			page 4


  64:uart_debug.h  **** /* Header file includes */     
  65:uart_debug.h  **** #include "project.h"    
  66:uart_debug.h  **** #include <stdio.h>
  67:uart_debug.h  **** #include <stdlib.h>
  68:uart_debug.h  **** #include <string.h>
  69:uart_debug.h  **** #include <inttypes.h>
  70:uart_debug.h  **** 
  71:uart_debug.h  **** #if CY_CPU_CORTEX_M4
  72:uart_debug.h  **** #include "FreeRTOS.h"
  73:uart_debug.h  **** #include "task.h"
  74:uart_debug.h  **** #include "queue.h"
  75:uart_debug.h  **** #endif /* CY_CPU_CORTEX_M4 */
  76:uart_debug.h  ****   
  77:uart_debug.h  **** /* (true) enables UART based debug and (false) disables it. Note that 
  78:uart_debug.h  ****    enabling debug reduces performance, power efficiency and increases 
  79:uart_debug.h  ****    code size. Make sure to enable the UART_DEBUG component in TopDesign 
  80:uart_debug.h  ****    schematic if debug is enabled */    
  81:uart_debug.h  **** #define UART_DEBUG_ENABLE    (true)
  82:uart_debug.h  ****     
  83:uart_debug.h  **** /* Declare the macros used for UART based debug. Make sure to enable the
  84:uart_debug.h  ****     UART_DEBUG component in TopDesign schematic if debug is enabled */    
  85:uart_debug.h  **** #if (UART_DEBUG_ENABLE)
  86:uart_debug.h  ****     /* UART component used for STDIO functions */
  87:uart_debug.h  ****     #define UART_STDIO          (DEBUG_UART_HW)
  88:uart_debug.h  ****     
  89:uart_debug.h  ****     /* Following macros are not RTOS thread-safe, therefore, should not be
  90:uart_debug.h  ****        called from RTOS Tasks */
  91:uart_debug.h  ****     
  92:uart_debug.h  ****     /* Initializes the UART component used for STDIO functions */
  93:uart_debug.h  ****     #define DebugPrintfInit()  (DEBUG_UART_Start())
  94:uart_debug.h  ****     /* Function macro that sends formatted output to STDOUT */
  95:uart_debug.h  ****     #define DebugPrintf(...)     (printf(__VA_ARGS__))
  96:uart_debug.h  ****     
  97:uart_debug.h  **** #if CY_CPU_CORTEX_M4
  98:uart_debug.h  ****     /* RTOS thread-safe macros for initializing and printing debug 
  99:uart_debug.h  ****        information from RTOS Tasks */
 100:uart_debug.h  ****     
 101:uart_debug.h  ****     /* Initializes the underlying Task and Queue used for printing debug 
 102:uart_debug.h  ****        messages */
 103:uart_debug.h  ****     #define Task_DebugInit()   (InitDebugPrintf())
 104:uart_debug.h  **** 
 105:uart_debug.h  ****     /* Prints a constant string and an optional error code from a separate 
 106:uart_debug.h  ****        Task */
 107:uart_debug.h  ****     #define Task_DebugPrintf(constString, errorCode) (SendToDebugPrintTask(\
 108:uart_debug.h  ****                                                     (char*)constString,\
 109:uart_debug.h  ****                                                     (uint32_t)errorCode))
 110:uart_debug.h  ****     
 111:uart_debug.h  ****     /* Definition of internal macros, datatypes and the inline functions 
 112:uart_debug.h  ****        used by the RTOS thread-safe macros for initializing and printing debug 
 113:uart_debug.h  ****        information from RTOS Tasks */
 114:uart_debug.h  ****             
 115:uart_debug.h  ****     /* Maximum number of debug messages that can be queued */
 116:uart_debug.h  ****     #define DEBUG_QUEUE_SIZE    16u
 117:uart_debug.h  ****     
 118:uart_debug.h  ****     /* Datatype used for debug queue */
 119:uart_debug.h  ****     typedef struct
 120:uart_debug.h  ****     {
ARM GAS  C:\Users\Parsa\AppData\Local\Temp\ccuXhMxX.s 			page 5


 121:uart_debug.h  ****         char* stringPointer;
 122:uart_debug.h  ****         uint32_t errorCode;
 123:uart_debug.h  ****     }   debug_print_data_t;
 124:uart_debug.h  ****     
 125:uart_debug.h  ****     /* Queue handle for debug message Queue */
 126:uart_debug.h  ****     extern QueueHandle_t debugMessageQ;
 127:uart_debug.h  ****     
 128:uart_debug.h  ****     /* Task that performs thread safe debug message printing */
 129:uart_debug.h  ****     void Task_Debug(void *pvParameters);
 130:uart_debug.h  ****     
 131:uart_debug.h  ****     /* Inline function that creates the underlying Task and Queue  */
 132:uart_debug.h  ****     void inline static InitDebugPrintf()
 133:uart_debug.h  ****     {
 134:uart_debug.h  ****         debugMessageQ = xQueueCreate(DEBUG_QUEUE_SIZE,
  64              		.loc 2 134 0
  65 0028 0022     		movs	r2, #0
  66 002a 0821     		movs	r1, #8
  67 002c 1020     		movs	r0, #16
  68 002e FFF7FEFF 		bl	xQueueGenericCreate
  69              	.LVL4:
  70 0032 0F4B     		ldr	r3, .L4+20
  71 0034 1860     		str	r0, [r3]
 135:uart_debug.h  ****                                         sizeof(debug_print_data_t));
 136:uart_debug.h  ****         xTaskCreate(Task_Debug, "Debug Task", configMINIMAL_STACK_SIZE, NULL,
  72              		.loc 2 136 0
  73 0036 0023     		movs	r3, #0
  74 0038 0193     		str	r3, [sp, #4]
  75 003a 0122     		movs	r2, #1
  76 003c 0092     		str	r2, [sp]
  77 003e 8022     		movs	r2, #128
  78 0040 0C49     		ldr	r1, .L4+24
  79 0042 0D48     		ldr	r0, .L4+28
  80 0044 FFF7FEFF 		bl	xTaskCreate
  81              	.LVL5:
  82              	.LBE5:
  83              	.LBE4:
  46:main_cm4.c    ****                 NULL, TASK_MOTION_SENSOR_PRIORITY, &xTaskHandleMotion);
  47:main_cm4.c    **** 
  48:main_cm4.c    ****     /* Initialize thread-safe debug message printing. See uart_debug.h header 
  49:main_cm4.c    ****        file to enable / disable this feature */
  50:main_cm4.c    ****     Task_DebugInit();
  51:main_cm4.c    ****     
  52:main_cm4.c    ****     /* Start the RTOS scheduler. This function should never return */
  53:main_cm4.c    ****     vTaskStartScheduler();
  84              		.loc 1 53 0
  85 0048 FFF7FEFF 		bl	vTaskStartScheduler
  86              	.LVL6:
  54:main_cm4.c    ****     
  55:main_cm4.c    ****     /* Should never get here! */ 
  56:main_cm4.c    ****     DebugPrintf("Error!   : RTOS - scheduler crashed \r\n");
  87              		.loc 1 56 0
  88 004c 0B48     		ldr	r0, .L4+32
  89 004e FFF7FEFF 		bl	puts
  90              	.LVL7:
  57:main_cm4.c    ****     
  58:main_cm4.c    ****     /* Halt the CPU if scheduler exits */
  59:main_cm4.c    ****     CY_ASSERT(0);
ARM GAS  C:\Users\Parsa\AppData\Local\Temp\ccuXhMxX.s 			page 6


  91              		.loc 1 59 0
  92 0052 3B21     		movs	r1, #59
  93 0054 0A48     		ldr	r0, .L4+36
  94 0056 FFF7FEFF 		bl	Cy_SysLib_AssertFailed
  95              	.LVL8:
  96              	.L2:
  97 005a FEE7     		b	.L2
  98              	.L5:
  99              		.align	2
 100              	.L4:
 101 005c 00000000 		.word	.LC0
 102 0060 0C000000 		.word	.LC1
 103 0064 00000000 		.word	xTaskHandleMotion
 104 0068 40000000 		.word	.LC2
 105 006c 00000000 		.word	Task_Motion
 106 0070 00000000 		.word	debugMessageQ
 107 0074 4C000000 		.word	.LC3
 108 0078 00000000 		.word	Task_Debug
 109 007c 58000000 		.word	.LC4
 110 0080 80000000 		.word	.LC5
 111              		.cfi_endproc
 112              	.LFE515:
 113              		.size	main, .-main
 114              		.section	.text.vApplicationIdleHook,"ax",%progbits
 115              		.align	2
 116              		.global	vApplicationIdleHook
 117              		.thumb
 118              		.thumb_func
 119              		.type	vApplicationIdleHook, %function
 120              	vApplicationIdleHook:
 121              	.LFB516:
  60:main_cm4.c    ****     
  61:main_cm4.c    ****     for(;;)
  62:main_cm4.c    ****     {
  63:main_cm4.c    ****     }	
  64:main_cm4.c    **** }
  65:main_cm4.c    **** 
  66:main_cm4.c    **** /*******************************************************************************
  67:main_cm4.c    **** * Function Name: void vApplicationIdleHook(void)
  68:main_cm4.c    **** ********************************************************************************
  69:main_cm4.c    **** *
  70:main_cm4.c    **** * Summary:
  71:main_cm4.c    **** *  This function is called when the RTOS in idle mode
  72:main_cm4.c    **** *    
  73:main_cm4.c    **** * Parameters:
  74:main_cm4.c    **** *  None
  75:main_cm4.c    **** *
  76:main_cm4.c    **** * Return:
  77:main_cm4.c    **** *  None
  78:main_cm4.c    **** *
  79:main_cm4.c    **** *******************************************************************************/
  80:main_cm4.c    **** void vApplicationIdleHook(void)
  81:main_cm4.c    **** {
 122              		.loc 1 81 0
 123              		.cfi_startproc
 124              		@ args = 0, pretend = 0, frame = 0
 125              		@ frame_needed = 0, uses_anonymous_args = 0
ARM GAS  C:\Users\Parsa\AppData\Local\Temp\ccuXhMxX.s 			page 7


 126 0000 08B5     		push	{r3, lr}
 127              		.cfi_def_cfa_offset 8
 128              		.cfi_offset 3, -8
 129              		.cfi_offset 14, -4
  82:main_cm4.c    ****     /* Enter sleep-mode */
  83:main_cm4.c    ****     Cy_SysPm_Sleep(CY_SYSPM_WAIT_FOR_INTERRUPT);
 130              		.loc 1 83 0
 131 0002 0020     		movs	r0, #0
 132 0004 FFF7FEFF 		bl	Cy_SysPm_CpuEnterSleep
 133              	.LVL9:
 134 0008 08BD     		pop	{r3, pc}
 135              		.cfi_endproc
 136              	.LFE516:
 137              		.size	vApplicationIdleHook, .-vApplicationIdleHook
 138 000a 00BF     		.section	.text.vApplicationStackOverflowHook,"ax",%progbits
 139              		.align	2
 140              		.global	vApplicationStackOverflowHook
 141              		.thumb
 142              		.thumb_func
 143              		.type	vApplicationStackOverflowHook, %function
 144              	vApplicationStackOverflowHook:
 145              	.LFB517:
  84:main_cm4.c    **** }
  85:main_cm4.c    **** 
  86:main_cm4.c    **** /*******************************************************************************
  87:main_cm4.c    **** * Function Name: void vApplicationStackOverflowHook(TaskHandle_t *pxTask, 
  88:main_cm4.c    ****                                                     signed char *pcTaskName)
  89:main_cm4.c    **** ********************************************************************************
  90:main_cm4.c    **** *
  91:main_cm4.c    **** * Summary:
  92:main_cm4.c    **** *  This function is called when a stack overflow has been detected by the RTOS
  93:main_cm4.c    **** *    
  94:main_cm4.c    **** * Parameters:
  95:main_cm4.c    **** *  TaskHandle_t  : Handle to the task
  96:main_cm4.c    **** *  signed char   : Name of the task
  97:main_cm4.c    **** *
  98:main_cm4.c    **** * Return:
  99:main_cm4.c    **** *  None
 100:main_cm4.c    **** *
 101:main_cm4.c    **** *******************************************************************************/
 102:main_cm4.c    **** void vApplicationStackOverflowHook(TaskHandle_t *pxTask, signed char *pcTaskName)
 103:main_cm4.c    **** {
 146              		.loc 1 103 0
 147              		.cfi_startproc
 148              		@ args = 0, pretend = 0, frame = 0
 149              		@ frame_needed = 0, uses_anonymous_args = 0
 150              	.LVL10:
 151 0000 08B5     		push	{r3, lr}
 152              		.cfi_def_cfa_offset 8
 153              		.cfi_offset 3, -8
 154              		.cfi_offset 14, -4
 104:main_cm4.c    ****     /* Remove warning for unused parameters */
 105:main_cm4.c    ****     (void)pxTask;
 106:main_cm4.c    ****     
 107:main_cm4.c    ****     /* Print the error message with task name if debug is enabled in 
 108:main_cm4.c    ****        uart_debug.h file */
 109:main_cm4.c    ****     DebugPrintf("Error!   : RTOS - stack overflow in %s \r\n", pcTaskName);
ARM GAS  C:\Users\Parsa\AppData\Local\Temp\ccuXhMxX.s 			page 8


 155              		.loc 1 109 0
 156 0002 0448     		ldr	r0, .L10
 157              	.LVL11:
 158 0004 FFF7FEFF 		bl	printf
 159              	.LVL12:
 110:main_cm4.c    ****     
 111:main_cm4.c    ****     /* Halt the CPU */
 112:main_cm4.c    ****     CY_ASSERT(0);
 160              		.loc 1 112 0
 161 0008 7021     		movs	r1, #112
 162 000a 0348     		ldr	r0, .L10+4
 163 000c FFF7FEFF 		bl	Cy_SysLib_AssertFailed
 164              	.LVL13:
 165 0010 08BD     		pop	{r3, pc}
 166              	.L11:
 167 0012 00BF     		.align	2
 168              	.L10:
 169 0014 8C000000 		.word	.LC6
 170 0018 80000000 		.word	.LC5
 171              		.cfi_endproc
 172              	.LFE517:
 173              		.size	vApplicationStackOverflowHook, .-vApplicationStackOverflowHook
 174              		.section	.text.vApplicationMallocFailedHook,"ax",%progbits
 175              		.align	2
 176              		.global	vApplicationMallocFailedHook
 177              		.thumb
 178              		.thumb_func
 179              		.type	vApplicationMallocFailedHook, %function
 180              	vApplicationMallocFailedHook:
 181              	.LFB518:
 113:main_cm4.c    **** }
 114:main_cm4.c    **** 
 115:main_cm4.c    **** /*******************************************************************************
 116:main_cm4.c    **** * Function Name: void vApplicationMallocFailedHook(void)
 117:main_cm4.c    **** ********************************************************************************
 118:main_cm4.c    **** *
 119:main_cm4.c    **** * Summary:
 120:main_cm4.c    **** *  This function is called when a memory allocation operation by the RTOS
 121:main_cm4.c    **** *  has failed
 122:main_cm4.c    **** *    
 123:main_cm4.c    **** * Parameters:
 124:main_cm4.c    **** *  None
 125:main_cm4.c    **** *
 126:main_cm4.c    **** * Return:
 127:main_cm4.c    **** *  None
 128:main_cm4.c    **** *
 129:main_cm4.c    **** *******************************************************************************/
 130:main_cm4.c    **** void vApplicationMallocFailedHook(void)
 131:main_cm4.c    **** {
 182              		.loc 1 131 0
 183              		.cfi_startproc
 184              		@ args = 0, pretend = 0, frame = 0
 185              		@ frame_needed = 0, uses_anonymous_args = 0
 186 0000 08B5     		push	{r3, lr}
 187              		.cfi_def_cfa_offset 8
 188              		.cfi_offset 3, -8
 189              		.cfi_offset 14, -4
ARM GAS  C:\Users\Parsa\AppData\Local\Temp\ccuXhMxX.s 			page 9


 132:main_cm4.c    ****     /* Print the error message if debug is enabled in uart_debug.h file */
 133:main_cm4.c    ****     DebugPrintf("Error!   : RTOS - Memory allocation failed \r\n");
 190              		.loc 1 133 0
 191 0002 0448     		ldr	r0, .L14
 192 0004 FFF7FEFF 		bl	puts
 193              	.LVL14:
 134:main_cm4.c    ****     
 135:main_cm4.c    ****     /* Halt the CPU */
 136:main_cm4.c    ****     CY_ASSERT(0);
 194              		.loc 1 136 0
 195 0008 8821     		movs	r1, #136
 196 000a 0348     		ldr	r0, .L14+4
 197 000c FFF7FEFF 		bl	Cy_SysLib_AssertFailed
 198              	.LVL15:
 199 0010 08BD     		pop	{r3, pc}
 200              	.L15:
 201 0012 00BF     		.align	2
 202              	.L14:
 203 0014 B8000000 		.word	.LC7
 204 0018 80000000 		.word	.LC5
 205              		.cfi_endproc
 206              	.LFE518:
 207              		.size	vApplicationMallocFailedHook, .-vApplicationMallocFailedHook
 208              		.section	.rodata.str1.4,"aMS",%progbits,1
 209              		.align	2
 210              	.LC0:
 211 0000 1B5B324A 		.ascii	"\033[2J\033[;H\000"
 211      1B5B3B48 
 211      00
 212 0009 000000   		.space	3
 213              	.LC1:
 214 000c 50536F43 		.ascii	"PSoC 6 MCU: Interfacing BMI160 (I2C) in FreeRTOS\015"
 214      2036204D 
 214      43553A20 
 214      496E7465 
 214      72666163 
 215 003d 00       		.ascii	"\000"
 216 003e 0000     		.space	2
 217              	.LC2:
 218 0040 4D6F7469 		.ascii	"Motion Task\000"
 218      6F6E2054 
 218      61736B00 
 219              	.LC3:
 220 004c 44656275 		.ascii	"Debug Task\000"
 220      67205461 
 220      736B00
 221 0057 00       		.space	1
 222              	.LC4:
 223 0058 4572726F 		.ascii	"Error!   : RTOS - scheduler crashed \015\000"
 223      72212020 
 223      203A2052 
 223      544F5320 
 223      2D207363 
 224 007e 0000     		.space	2
 225              	.LC5:
 226 0080 6D61696E 		.ascii	"main_cm4.c\000"
 226      5F636D34 
ARM GAS  C:\Users\Parsa\AppData\Local\Temp\ccuXhMxX.s 			page 10


 226      2E6300
 227 008b 00       		.space	1
 228              	.LC6:
 229 008c 4572726F 		.ascii	"Error!   : RTOS - stack overflow in %s \015\012\000"
 229      72212020 
 229      203A2052 
 229      544F5320 
 229      2D207374 
 230 00b6 0000     		.space	2
 231              	.LC7:
 232 00b8 4572726F 		.ascii	"Error!   : RTOS - Memory allocation failed \015\000"
 232      72212020 
 232      203A2052 
 232      544F5320 
 232      2D204D65 
 233              		.text
 234              	.Letext0:
 235              		.file 3 "c:\\program files (x86)\\cypress\\psoc creator\\4.4\\psoc creator\\import\\gnu\\arm\\5.4.
 236              		.file 4 "c:\\program files (x86)\\cypress\\psoc creator\\4.4\\psoc creator\\import\\gnu\\arm\\5.4.
 237              		.file 5 "Generated_Source\\PSoC6\\pdl\\drivers/peripheral/device/cy_device.h"
 238              		.file 6 "Generated_Source\\PSoC6\\pdl\\drivers/peripheral/syslib/cy_syslib.h"
 239              		.file 7 "Generated_Source\\PSoC6\\pdl\\drivers/peripheral/syspm/cy_syspm.h"
 240              		.file 8 "Generated_Source\\PSoC6\\pdl\\drivers/peripheral/scb/cy_scb_i2c.h"
 241              		.file 9 "Generated_Source\\PSoC6\\pdl\\drivers/peripheral/scb/cy_scb_uart.h"
 242              		.file 10 "Generated_Source\\PSoC6\\pdl\\rtos/FreeRTOS/10.0.1/Source/portable/GCC/CM4F/portmacro.h"
 243              		.file 11 "Generated_Source\\PSoC6\\pdl\\rtos/FreeRTOS/10.0.1/Source/include/task.h"
 244              		.file 12 "Generated_Source\\PSoC6\\pdl\\rtos/FreeRTOS/10.0.1/Source/include/queue.h"
 245              		.file 13 "Generated_Source\\PSoC6\\pdl\\cmsis/include/core_cm4.h"
 246              		.file 14 "Generated_Source\\PSoC6/DEBUG_UART.h"
 247              		.file 15 "Generated_Source\\PSoC6/I2Cm.h"
 248              		.file 16 "motion_task.h"
 249              		.file 17 "c:\\program files (x86)\\cypress\\psoc creator\\4.4\\psoc creator\\import\\gnu\\arm\\5.4
 250              		.file 18 "<built-in>"