ARM GAS  C:\Users\clientmd\AppData\Local\Temp\ccrmAytN.s 			page 1


   1              		.syntax unified
   2              		.cpu cortex-m4
   3              		.eabi_attribute 27, 1
   4              		.fpu fpv4-sp-d16
   5              		.eabi_attribute 20, 1
   6              		.eabi_attribute 21, 1
   7              		.eabi_attribute 23, 3
   8              		.eabi_attribute 24, 1
   9              		.eabi_attribute 25, 1
  10              		.eabi_attribute 26, 1
  11              		.eabi_attribute 30, 1
  12              		.eabi_attribute 34, 1
  13              		.eabi_attribute 18, 4
  14              		.thumb
  15              		.syntax unified
  16              		.file	"capteur_MAX.c"
  17              		.text
  18              	.Ltext0:
  19              		.cfi_sections	.debug_frame
  20              		.section	.text.sensorEcriture,"ax",%progbits
  21              		.align	2
  22              		.global	sensorEcriture
  23              		.thumb
  24              		.thumb_func
  25              		.type	sensorEcriture, %function
  26              	sensorEcriture:
  27              	.LFB653:
  28              		.file 1 "capteur_MAX.c"
   1:capteur_MAX.c **** /* ========================================
   2:capteur_MAX.c ****  *
   3:capteur_MAX.c ****  * Copyright YOUR COMPANY, THE YEAR
   4:capteur_MAX.c ****  * All Rights Reserved
   5:capteur_MAX.c ****  * UNPUBLISHED, LICENSED SOFTWARE.
   6:capteur_MAX.c ****  *
   7:capteur_MAX.c ****  * CONFIDENTIAL AND PROPRIETARY INFORMATION
   8:capteur_MAX.c ****  * WHICH IS THE PROPERTY OF your company.
   9:capteur_MAX.c ****  *
  10:capteur_MAX.c ****  * ========================================
  11:capteur_MAX.c **** */
  12:capteur_MAX.c **** 
  13:capteur_MAX.c **** #include "project.h"
  14:capteur_MAX.c **** #include "GUI.h"
  15:capteur_MAX.c **** #include "pervasive_eink_hardware_driver.h"
  16:capteur_MAX.c **** #include "cy_eink_library.h"
  17:capteur_MAX.c **** #include "LCDConf.h"
  18:capteur_MAX.c **** #include "FreeRTOS.h"
  19:capteur_MAX.c **** #include "task.h"
  20:capteur_MAX.c **** #include "queue.h"
  21:capteur_MAX.c **** #include <stdlib.h>
  22:capteur_MAX.c **** #include "capteur_MAX.h"
  23:capteur_MAX.c **** 
  24:capteur_MAX.c **** 
  25:capteur_MAX.c **** uint8_t capteurAdresse1 = 0b1010111;
  26:capteur_MAX.c **** 
  27:capteur_MAX.c **** 
  28:capteur_MAX.c **** void sensorEcriture(uint8_t slave_addr, uint8_t register_addr, uint8_t *buffer1, uint16_t nb_bytes)
  29              		.loc 1 28 0
ARM GAS  C:\Users\clientmd\AppData\Local\Temp\ccrmAytN.s 			page 2


  30              		.cfi_startproc
  31              		@ args = 0, pretend = 0, frame = 0
  32              		@ frame_needed = 0, uses_anonymous_args = 0
  33              	.LVL0:
  34 0000 2DE9F041 		push	{r4, r5, r6, r7, r8, lr}
  35              		.cfi_def_cfa_offset 24
  36              		.cfi_offset 4, -24
  37              		.cfi_offset 5, -20
  38              		.cfi_offset 6, -16
  39              		.cfi_offset 7, -12
  40              		.cfi_offset 8, -8
  41              		.cfi_offset 14, -4
  42 0004 82B0     		sub	sp, sp, #8
  43              		.cfi_def_cfa_offset 32
  44 0006 8846     		mov	r8, r1
  45 0008 1646     		mov	r6, r2
  46 000a 1D46     		mov	r5, r3
  29:capteur_MAX.c **** 
  30:capteur_MAX.c ****     Cy_SCB_I2C_MasterSendStart(I2C_HW, slave_addr, CY_SCB_I2C_WRITE_XFER, 0, &I2C_context);
  47              		.loc 1 30 0
  48 000c 104C     		ldr	r4, .L5
  49 000e 114F     		ldr	r7, .L5+4
  50 0010 0097     		str	r7, [sp]
  51 0012 0023     		movs	r3, #0
  52              	.LVL1:
  53 0014 1A46     		mov	r2, r3
  54              	.LVL2:
  55 0016 0146     		mov	r1, r0
  56              	.LVL3:
  57 0018 2046     		mov	r0, r4
  58              	.LVL4:
  59 001a FFF7FEFF 		bl	Cy_SCB_I2C_MasterSendStart
  60              	.LVL5:
  31:capteur_MAX.c ****     Cy_SCB_I2C_MasterWriteByte(I2C_HW, register_addr, 0, &I2C_context);
  61              		.loc 1 31 0
  62 001e 3B46     		mov	r3, r7
  63 0020 0022     		movs	r2, #0
  64 0022 4146     		mov	r1, r8
  65 0024 2046     		mov	r0, r4
  66 0026 FFF7FEFF 		bl	Cy_SCB_I2C_MasterWriteByte
  67              	.LVL6:
  68              	.LBB2:
  32:capteur_MAX.c ****     
  33:capteur_MAX.c ****     for(int i = 0; i < nb_bytes; i++){
  69              		.loc 1 33 0
  70 002a 0024     		movs	r4, #0
  71 002c 06E0     		b	.L2
  72              	.LVL7:
  73              	.L3:
  34:capteur_MAX.c ****         Cy_SCB_I2C_MasterWriteByte(I2C_HW, buffer1[i], 0, &I2C_context);
  74              		.loc 1 34 0 discriminator 3
  75 002e 094B     		ldr	r3, .L5+4
  76 0030 0022     		movs	r2, #0
  77 0032 315D     		ldrb	r1, [r6, r4]	@ zero_extendqisi2
  78 0034 0648     		ldr	r0, .L5
  79 0036 FFF7FEFF 		bl	Cy_SCB_I2C_MasterWriteByte
  80              	.LVL8:
ARM GAS  C:\Users\clientmd\AppData\Local\Temp\ccrmAytN.s 			page 3


  33:capteur_MAX.c ****         Cy_SCB_I2C_MasterWriteByte(I2C_HW, buffer1[i], 0, &I2C_context);
  81              		.loc 1 33 0 discriminator 3
  82 003a 0134     		adds	r4, r4, #1
  83              	.LVL9:
  84              	.L2:
  33:capteur_MAX.c ****         Cy_SCB_I2C_MasterWriteByte(I2C_HW, buffer1[i], 0, &I2C_context);
  85              		.loc 1 33 0 is_stmt 0 discriminator 1
  86 003c AC42     		cmp	r4, r5
  87 003e F6DB     		blt	.L3
  88              	.LBE2:
  35:capteur_MAX.c ****     }
  36:capteur_MAX.c ****     
  37:capteur_MAX.c ****     Cy_SCB_I2C_MasterSendStop(I2C_HW, 0, &I2C_context);
  89              		.loc 1 37 0 is_stmt 1
  90 0040 044A     		ldr	r2, .L5+4
  91 0042 0021     		movs	r1, #0
  92 0044 0248     		ldr	r0, .L5
  93 0046 FFF7FEFF 		bl	Cy_SCB_I2C_MasterSendStop
  94              	.LVL10:
  38:capteur_MAX.c **** }
  95              		.loc 1 38 0
  96 004a 02B0     		add	sp, sp, #8
  97              		.cfi_def_cfa_offset 24
  98              		@ sp needed
  99 004c BDE8F081 		pop	{r4, r5, r6, r7, r8, pc}
 100              	.LVL11:
 101              	.L6:
 102              		.align	2
 103              	.L5:
 104 0050 00006340 		.word	1080229888
 105 0054 00000000 		.word	I2C_context
 106              		.cfi_endproc
 107              	.LFE653:
 108              		.size	sensorEcriture, .-sensorEcriture
 109              		.section	.text.sensorLecture,"ax",%progbits
 110              		.align	2
 111              		.global	sensorLecture
 112              		.thumb
 113              		.thumb_func
 114              		.type	sensorLecture, %function
 115              	sensorLecture:
 116              	.LFB654:
  39:capteur_MAX.c **** 
  40:capteur_MAX.c **** 
  41:capteur_MAX.c **** void sensorLecture(uint8_t slave_addr, uint8_t register_addr, uint8_t *buffer1, uint8_t *buffer2, u
 117              		.loc 1 41 0
 118              		.cfi_startproc
 119              		@ args = 8, pretend = 0, frame = 0
 120              		@ frame_needed = 0, uses_anonymous_args = 0
 121              	.LVL12:
 122 0000 2DE9F04F 		push	{r4, r5, r6, r7, r8, r9, r10, fp, lr}
 123              		.cfi_def_cfa_offset 36
 124              		.cfi_offset 4, -36
 125              		.cfi_offset 5, -32
 126              		.cfi_offset 6, -28
 127              		.cfi_offset 7, -24
 128              		.cfi_offset 8, -20
ARM GAS  C:\Users\clientmd\AppData\Local\Temp\ccrmAytN.s 			page 4


 129              		.cfi_offset 9, -16
 130              		.cfi_offset 10, -12
 131              		.cfi_offset 11, -8
 132              		.cfi_offset 14, -4
 133 0004 83B0     		sub	sp, sp, #12
 134              		.cfi_def_cfa_offset 48
 135 0006 8246     		mov	r10, r0
 136 0008 8B46     		mov	fp, r1
 137 000a 9046     		mov	r8, r2
 138 000c 1F46     		mov	r7, r3
 139 000e BDF83050 		ldrh	r5, [sp, #48]
 140 0012 BDF83460 		ldrh	r6, [sp, #52]
  42:capteur_MAX.c ****     
  43:capteur_MAX.c ****     Cy_SCB_I2C_MasterSendStart(I2C_HW, slave_addr, CY_SCB_I2C_WRITE_XFER, 0, &I2C_context);
 141              		.loc 1 43 0
 142 0016 254C     		ldr	r4, .L13
 143 0018 DFF89490 		ldr	r9, .L13+4
 144 001c CDF80090 		str	r9, [sp]
 145 0020 0023     		movs	r3, #0
 146              	.LVL13:
 147 0022 1A46     		mov	r2, r3
 148              	.LVL14:
 149 0024 0146     		mov	r1, r0
 150              	.LVL15:
 151 0026 2046     		mov	r0, r4
 152              	.LVL16:
 153 0028 FFF7FEFF 		bl	Cy_SCB_I2C_MasterSendStart
 154              	.LVL17:
  44:capteur_MAX.c ****     Cy_SCB_I2C_MasterWriteByte(I2C_HW, register_addr, 0, &I2C_context);
 155              		.loc 1 44 0
 156 002c 4B46     		mov	r3, r9
 157 002e 0022     		movs	r2, #0
 158 0030 5946     		mov	r1, fp
 159 0032 2046     		mov	r0, r4
 160 0034 FFF7FEFF 		bl	Cy_SCB_I2C_MasterWriteByte
 161              	.LVL18:
  45:capteur_MAX.c ****     Cy_SCB_I2C_MasterSendReStart(I2C_HW, slave_addr, CY_SCB_I2C_READ_XFER, 0, &I2C_context);
 162              		.loc 1 45 0
 163 0038 CDF80090 		str	r9, [sp]
 164 003c 0023     		movs	r3, #0
 165 003e 0122     		movs	r2, #1
 166 0040 5146     		mov	r1, r10
 167 0042 2046     		mov	r0, r4
 168 0044 FFF7FEFF 		bl	Cy_SCB_I2C_MasterSendReStart
 169              	.LVL19:
 170              	.LBB3:
  46:capteur_MAX.c ****     
  47:capteur_MAX.c ****     for(int i = 0; i < (2*nb_bytes)-1; i++){
 171              		.loc 1 47 0
 172 0048 0024     		movs	r4, #0
 173 004a 16E0     		b	.L8
 174              	.LVL20:
 175              	.L11:
  48:capteur_MAX.c ****         if(i < 3){
 176              		.loc 1 48 0
 177 004c 022C     		cmp	r4, #2
 178 004e 09DC     		bgt	.L9
ARM GAS  C:\Users\clientmd\AppData\Local\Temp\ccrmAytN.s 			page 5


  49:capteur_MAX.c ****             Cy_SCB_I2C_MasterReadByte(I2C_HW, CY_SCB_I2C_ACK, &buffer1[position+i], 0, &I2C_context
 179              		.loc 1 49 0
 180 0050 3219     		adds	r2, r6, r4
 181 0052 174B     		ldr	r3, .L13+4
 182 0054 0093     		str	r3, [sp]
 183 0056 0023     		movs	r3, #0
 184 0058 4244     		add	r2, r2, r8
 185 005a 1946     		mov	r1, r3
 186 005c 1348     		ldr	r0, .L13
 187 005e FFF7FEFF 		bl	Cy_SCB_I2C_MasterReadByte
 188              	.LVL21:
 189 0062 09E0     		b	.L10
 190              	.L9:
  50:capteur_MAX.c ****         }
  51:capteur_MAX.c ****         else{
  52:capteur_MAX.c ****             Cy_SCB_I2C_MasterReadByte(I2C_HW, CY_SCB_I2C_ACK, &buffer2[position+i-3], 0, &I2C_conte
 191              		.loc 1 52 0
 192 0064 3219     		adds	r2, r6, r4
 193 0066 033A     		subs	r2, r2, #3
 194 0068 114B     		ldr	r3, .L13+4
 195 006a 0093     		str	r3, [sp]
 196 006c 0023     		movs	r3, #0
 197 006e 3A44     		add	r2, r2, r7
 198 0070 1946     		mov	r1, r3
 199 0072 0E48     		ldr	r0, .L13
 200 0074 FFF7FEFF 		bl	Cy_SCB_I2C_MasterReadByte
 201              	.LVL22:
 202              	.L10:
  47:capteur_MAX.c ****         if(i < 3){
 203              		.loc 1 47 0 discriminator 2
 204 0078 0134     		adds	r4, r4, #1
 205              	.LVL23:
 206              	.L8:
  47:capteur_MAX.c ****         if(i < 3){
 207              		.loc 1 47 0 is_stmt 0 discriminator 1
 208 007a 2A46     		mov	r2, r5
 209 007c 6B00     		lsls	r3, r5, #1
 210 007e 013B     		subs	r3, r3, #1
 211 0080 9C42     		cmp	r4, r3
 212 0082 E3DB     		blt	.L11
 213              	.LBE3:
  53:capteur_MAX.c ****         }
  54:capteur_MAX.c ****     }
  55:capteur_MAX.c ****     
  56:capteur_MAX.c ****     Cy_SCB_I2C_MasterReadByte(I2C_HW, CY_SCB_I2C_NAK, &buffer2[position+nb_bytes-1], 0, &I2C_contex
 214              		.loc 1 56 0 is_stmt 1
 215 0084 3244     		add	r2, r2, r6
 216 0086 013A     		subs	r2, r2, #1
 217 0088 084C     		ldr	r4, .L13
 218              	.LVL24:
 219 008a 094D     		ldr	r5, .L13+4
 220 008c 0095     		str	r5, [sp]
 221 008e 0023     		movs	r3, #0
 222 0090 3A44     		add	r2, r2, r7
 223 0092 0121     		movs	r1, #1
 224 0094 2046     		mov	r0, r4
 225 0096 FFF7FEFF 		bl	Cy_SCB_I2C_MasterReadByte
ARM GAS  C:\Users\clientmd\AppData\Local\Temp\ccrmAytN.s 			page 6


 226              	.LVL25:
  57:capteur_MAX.c ****     Cy_SCB_I2C_MasterSendStop(I2C_HW, 0, &I2C_context);
 227              		.loc 1 57 0
 228 009a 2A46     		mov	r2, r5
 229 009c 0021     		movs	r1, #0
 230 009e 2046     		mov	r0, r4
 231 00a0 FFF7FEFF 		bl	Cy_SCB_I2C_MasterSendStop
 232              	.LVL26:
  58:capteur_MAX.c **** }
 233              		.loc 1 58 0
 234 00a4 03B0     		add	sp, sp, #12
 235              		.cfi_def_cfa_offset 36
 236              		@ sp needed
 237 00a6 BDE8F08F 		pop	{r4, r5, r6, r7, r8, r9, r10, fp, pc}
 238              	.LVL27:
 239              	.L14:
 240 00aa 00BF     		.align	2
 241              	.L13:
 242 00ac 00006340 		.word	1080229888
 243 00b0 00000000 		.word	I2C_context
 244              		.cfi_endproc
 245              	.LFE654:
 246              		.size	sensorLecture, .-sensorLecture
 247              		.section	.text.sensorConfiguration,"ax",%progbits
 248              		.align	2
 249              		.global	sensorConfiguration
 250              		.thumb
 251              		.thumb_func
 252              		.type	sensorConfiguration, %function
 253              	sensorConfiguration:
 254              	.LFB655:
  59:capteur_MAX.c **** 
  60:capteur_MAX.c **** 
  61:capteur_MAX.c **** void sensorConfiguration(uint8_t int_enable, uint8_t average, uint8_t roll_over, uint8_t nb_restant
 255              		.loc 1 61 0
 256              		.cfi_startproc
 257              		@ args = 24, pretend = 0, frame = 16
 258              		@ frame_needed = 0, uses_anonymous_args = 0
 259              	.LVL28:
 260 0000 10B5     		push	{r4, lr}
 261              		.cfi_def_cfa_offset 8
 262              		.cfi_offset 4, -8
 263              		.cfi_offset 14, -4
 264 0002 84B0     		sub	sp, sp, #16
 265              		.cfi_def_cfa_offset 24
 266 0004 8DF80700 		strb	r0, [sp, #7]
  62:capteur_MAX.c ****     
  63:capteur_MAX.c ****     uint8_t fifo_config = average|(roll_over|nb_restant);
 267              		.loc 1 63 0
 268 0008 1343     		orrs	r3, r3, r2
 269              	.LVL29:
 270 000a 1943     		orrs	r1, r1, r3
 271              	.LVL30:
 272 000c 8DF80F10 		strb	r1, [sp, #15]
  64:capteur_MAX.c ****     uint8_t mode_config = sensor_mode;
 273              		.loc 1 64 0
 274 0010 9DF81830 		ldrb	r3, [sp, #24]	@ zero_extendqisi2
ARM GAS  C:\Users\clientmd\AppData\Local\Temp\ccrmAytN.s 			page 7


 275 0014 8DF80E30 		strb	r3, [sp, #14]
  65:capteur_MAX.c ****     uint8_t SpO2_config = range_contr|(SPS|ADC_resol);
 276              		.loc 1 65 0
 277 0018 9DF82430 		ldrb	r3, [sp, #36]	@ zero_extendqisi2
 278 001c 9DF82020 		ldrb	r2, [sp, #32]	@ zero_extendqisi2
 279              	.LVL31:
 280 0020 1343     		orrs	r3, r3, r2
 281 0022 9DF81C20 		ldrb	r2, [sp, #28]	@ zero_extendqisi2
 282 0026 1343     		orrs	r3, r3, r2
 283 0028 8DF80D30 		strb	r3, [sp, #13]
  66:capteur_MAX.c ****     
  67:capteur_MAX.c ****     sensorEcriture(capteurAdresse1, 0x02, &int_enable, 1);
 284              		.loc 1 67 0
 285 002c 154C     		ldr	r4, .L17
 286 002e 0123     		movs	r3, #1
 287 0030 0DF10702 		add	r2, sp, #7
 288 0034 0221     		movs	r1, #2
 289 0036 2078     		ldrb	r0, [r4]	@ zero_extendqisi2
 290              	.LVL32:
 291 0038 FFF7FEFF 		bl	sensorEcriture
 292              	.LVL33:
  68:capteur_MAX.c ****     sensorEcriture(capteurAdresse1, 0x08, &fifo_config, 1);
 293              		.loc 1 68 0
 294 003c 0123     		movs	r3, #1
 295 003e 0DF10F02 		add	r2, sp, #15
 296 0042 0821     		movs	r1, #8
 297 0044 2078     		ldrb	r0, [r4]	@ zero_extendqisi2
 298 0046 FFF7FEFF 		bl	sensorEcriture
 299              	.LVL34:
  69:capteur_MAX.c ****     sensorEcriture(capteurAdresse1, 0x09, &mode_config, 1);
 300              		.loc 1 69 0
 301 004a 0123     		movs	r3, #1
 302 004c 0DF10E02 		add	r2, sp, #14
 303 0050 0921     		movs	r1, #9
 304 0052 2078     		ldrb	r0, [r4]	@ zero_extendqisi2
 305 0054 FFF7FEFF 		bl	sensorEcriture
 306              	.LVL35:
  70:capteur_MAX.c ****     sensorEcriture(capteurAdresse1, 0x0A, &SpO2_config, 1);
 307              		.loc 1 70 0
 308 0058 0123     		movs	r3, #1
 309 005a 0DF10D02 		add	r2, sp, #13
 310 005e 0A21     		movs	r1, #10
 311 0060 2078     		ldrb	r0, [r4]	@ zero_extendqisi2
 312 0062 FFF7FEFF 		bl	sensorEcriture
 313              	.LVL36:
  71:capteur_MAX.c ****     sensorEcriture(capteurAdresse1, 0x0C, &LED1_curr, 1);
 314              		.loc 1 71 0
 315 0066 0123     		movs	r3, #1
 316 0068 0AAA     		add	r2, sp, #40
 317              	.LVL37:
 318 006a 0C21     		movs	r1, #12
 319 006c 2078     		ldrb	r0, [r4]	@ zero_extendqisi2
 320 006e FFF7FEFF 		bl	sensorEcriture
 321              	.LVL38:
  72:capteur_MAX.c ****     sensorEcriture(capteurAdresse1, 0x0D, &LED2_curr, 1);
 322              		.loc 1 72 0
 323 0072 0123     		movs	r3, #1
ARM GAS  C:\Users\clientmd\AppData\Local\Temp\ccrmAytN.s 			page 8


 324 0074 0BAA     		add	r2, sp, #44
 325              	.LVL39:
 326 0076 0D21     		movs	r1, #13
 327 0078 2078     		ldrb	r0, [r4]	@ zero_extendqisi2
 328 007a FFF7FEFF 		bl	sensorEcriture
 329              	.LVL40:
  73:capteur_MAX.c ****     
  74:capteur_MAX.c **** }
 330              		.loc 1 74 0
 331 007e 04B0     		add	sp, sp, #16
 332              		.cfi_def_cfa_offset 8
 333              		@ sp needed
 334 0080 10BD     		pop	{r4, pc}
 335              	.LVL41:
 336              	.L18:
 337 0082 00BF     		.align	2
 338              	.L17:
 339 0084 00000000 		.word	.LANCHOR0
 340              		.cfi_endproc
 341              	.LFE655:
 342              		.size	sensorConfiguration, .-sensorConfiguration
 343              		.global	capteurAdresse1
 344              		.data
 345              		.set	.LANCHOR0,. + 0
 346              		.type	capteurAdresse1, %object
 347              		.size	capteurAdresse1, 1
 348              	capteurAdresse1:
 349 0000 57       		.byte	87
 350              		.text
 351              	.Letext0:
 352              		.file 2 "d:\\psoc creator\\4.4\\psoc creator\\import\\gnu\\arm\\5.4.1\\arm-none-eabi\\include\\mac
 353              		.file 3 "d:\\psoc creator\\4.4\\psoc creator\\import\\gnu\\arm\\5.4.1\\arm-none-eabi\\include\\sys
 354              		.file 4 "Generated_Source\\PSoC6\\pdl\\devices/psoc6/include/ip/cyip_scb.h"
 355              		.file 5 "Generated_Source\\PSoC6\\pdl\\devices/psoc6/include/psoc6_01_config.h"
 356              		.file 6 "Generated_Source\\PSoC6\\pdl\\drivers/peripheral/device/cy_device.h"
 357              		.file 7 "Generated_Source\\PSoC6\\pdl\\drivers/peripheral/scb/cy_scb_i2c.h"
 358              		.file 8 "Generated_Source\\PSoC6\\pdl\\drivers/peripheral/scb/cy_scb_spi.h"
 359              		.file 9 "Generated_Source\\PSoC6\\pdl\\drivers/peripheral/scb/cy_scb_uart.h"
 360              		.file 10 "Generated_Source\\PSoC6\\pdl\\drivers/peripheral/tcpwm/cy_tcpwm_counter.h"
 361              		.file 11 "Generated_Source\\PSoC6\\pdl\\cmsis/include/core_cm4.h"
 362              		.file 12 "Generated_Source\\PSoC6/CY_EINK_SPIM.h"
 363              		.file 13 "Generated_Source\\PSoC6/CY_EINK_Timer.h"
 364              		.file 14 "Generated_Source\\PSoC6/I2C.h"
 365              		.file 15 "Generated_Source\\PSoC6/UART.h"
 366              		.file 16 "Generated_Source\\PSoC6/Timer.h"