ARM GAS  C:\Users\clientmd\AppData\Local\Temp\ccFp8eaU.s 			page 1


   1              		.syntax unified
   2              		.cpu cortex-m4
   3              		.eabi_attribute 27, 1
   4              		.fpu fpv4-sp-d16
   5              		.eabi_attribute 20, 1
   6              		.eabi_attribute 21, 1
   7              		.eabi_attribute 23, 3
   8              		.eabi_attribute 24, 1
   9              		.eabi_attribute 25, 1
  10              		.eabi_attribute 26, 1
  11              		.eabi_attribute 30, 1
  12              		.eabi_attribute 34, 1
  13              		.eabi_attribute 18, 4
  14              		.thumb
  15              		.syntax unified
  16              		.file	"capteur_MAX.c"
  17              		.text
  18              	.Ltext0:
  19              		.cfi_sections	.debug_frame
  20              		.section	.text.sensorEcriture,"ax",%progbits
  21              		.align	2
  22              		.global	sensorEcriture
  23              		.thumb
  24              		.thumb_func
  25              		.type	sensorEcriture, %function
  26              	sensorEcriture:
  27              	.LFB660:
  28              		.file 1 "capteur_MAX.c"
   1:capteur_MAX.c **** /* ========================================
   2:capteur_MAX.c ****  *
   3:capteur_MAX.c ****  * Copyright YOUR COMPANY, THE YEAR
   4:capteur_MAX.c ****  * All Rights Reserved
   5:capteur_MAX.c ****  * UNPUBLISHED, LICENSED SOFTWARE.
   6:capteur_MAX.c ****  *
   7:capteur_MAX.c ****  * CONFIDENTIAL AND PROPRIETARY INFORMATION
   8:capteur_MAX.c ****  * WHICH IS THE PROPERTY OF your company.
   9:capteur_MAX.c ****  *
  10:capteur_MAX.c ****  * ========================================
  11:capteur_MAX.c **** */
  12:capteur_MAX.c **** 
  13:capteur_MAX.c **** #include "project.h"
  14:capteur_MAX.c **** #include "GUI.h"
  15:capteur_MAX.c **** #include "pervasive_eink_hardware_driver.h"
  16:capteur_MAX.c **** #include "cy_eink_library.h"
  17:capteur_MAX.c **** #include "LCDConf.h"
  18:capteur_MAX.c **** #include "FreeRTOS.h"
  19:capteur_MAX.c **** #include "task.h"
  20:capteur_MAX.c **** #include "queue.h"
  21:capteur_MAX.c **** #include <stdlib.h>
  22:capteur_MAX.c **** #include "capteur_MAX.h"
  23:capteur_MAX.c **** #include "variables.h"
  24:capteur_MAX.c **** #include "affichage.h"
  25:capteur_MAX.c **** 
  26:capteur_MAX.c **** /* Variables intermédiaires pour l'acquisition de données */
  27:capteur_MAX.c **** uint8_t red[3];
  28:capteur_MAX.c **** uint8_t ir[3];
  29:capteur_MAX.c **** uint32_t redSample;
ARM GAS  C:\Users\clientmd\AppData\Local\Temp\ccFp8eaU.s 			page 2


  30:capteur_MAX.c **** uint32_t irSample;
  31:capteur_MAX.c **** 
  32:capteur_MAX.c **** 
  33:capteur_MAX.c **** /***************************************************************************
  34:capteur_MAX.c **** Fonction permettant d'écrire un ou plusieurs bytes dans un registre du
  35:capteur_MAX.c **** capteur MAX30102. L'argument "buffer" contient l'information à écrire.
  36:capteur_MAX.c **** ****************************************************************************/
  37:capteur_MAX.c **** void sensorEcriture(uint8_t slave_addr, uint8_t register_addr, uint8_t *buffer, uint16_t nb_bytes){
  29              		.loc 1 37 0
  30              		.cfi_startproc
  31              		@ args = 0, pretend = 0, frame = 0
  32              		@ frame_needed = 0, uses_anonymous_args = 0
  33              	.LVL0:
  34 0000 2DE9F041 		push	{r4, r5, r6, r7, r8, lr}
  35              		.cfi_def_cfa_offset 24
  36              		.cfi_offset 4, -24
  37              		.cfi_offset 5, -20
  38              		.cfi_offset 6, -16
  39              		.cfi_offset 7, -12
  40              		.cfi_offset 8, -8
  41              		.cfi_offset 14, -4
  42 0004 82B0     		sub	sp, sp, #8
  43              		.cfi_def_cfa_offset 32
  44 0006 8846     		mov	r8, r1
  45 0008 1646     		mov	r6, r2
  46 000a 1D46     		mov	r5, r3
  38:capteur_MAX.c **** 
  39:capteur_MAX.c ****     Cy_SCB_I2C_MasterSendStart(I2C_HW, slave_addr, CY_SCB_I2C_WRITE_XFER, 0, &I2C_context);
  47              		.loc 1 39 0
  48 000c 104C     		ldr	r4, .L5
  49 000e 114F     		ldr	r7, .L5+4
  50 0010 0097     		str	r7, [sp]
  51 0012 0023     		movs	r3, #0
  52              	.LVL1:
  53 0014 1A46     		mov	r2, r3
  54              	.LVL2:
  55 0016 0146     		mov	r1, r0
  56              	.LVL3:
  57 0018 2046     		mov	r0, r4
  58              	.LVL4:
  59 001a FFF7FEFF 		bl	Cy_SCB_I2C_MasterSendStart
  60              	.LVL5:
  40:capteur_MAX.c ****     Cy_SCB_I2C_MasterWriteByte(I2C_HW, register_addr, 0, &I2C_context);
  61              		.loc 1 40 0
  62 001e 3B46     		mov	r3, r7
  63 0020 0022     		movs	r2, #0
  64 0022 4146     		mov	r1, r8
  65 0024 2046     		mov	r0, r4
  66 0026 FFF7FEFF 		bl	Cy_SCB_I2C_MasterWriteByte
  67              	.LVL6:
  68              	.LBB2:
  41:capteur_MAX.c ****     
  42:capteur_MAX.c ****     for(int i = 0; i < nb_bytes; i++){
  69              		.loc 1 42 0
  70 002a 0024     		movs	r4, #0
  71 002c 06E0     		b	.L2
  72              	.LVL7:
ARM GAS  C:\Users\clientmd\AppData\Local\Temp\ccFp8eaU.s 			page 3


  73              	.L3:
  43:capteur_MAX.c ****         Cy_SCB_I2C_MasterWriteByte(I2C_HW, buffer[i], 0, &I2C_context);
  74              		.loc 1 43 0 discriminator 3
  75 002e 094B     		ldr	r3, .L5+4
  76 0030 0022     		movs	r2, #0
  77 0032 315D     		ldrb	r1, [r6, r4]	@ zero_extendqisi2
  78 0034 0648     		ldr	r0, .L5
  79 0036 FFF7FEFF 		bl	Cy_SCB_I2C_MasterWriteByte
  80              	.LVL8:
  42:capteur_MAX.c ****         Cy_SCB_I2C_MasterWriteByte(I2C_HW, buffer[i], 0, &I2C_context);
  81              		.loc 1 42 0 discriminator 3
  82 003a 0134     		adds	r4, r4, #1
  83              	.LVL9:
  84              	.L2:
  42:capteur_MAX.c ****         Cy_SCB_I2C_MasterWriteByte(I2C_HW, buffer[i], 0, &I2C_context);
  85              		.loc 1 42 0 is_stmt 0 discriminator 1
  86 003c AC42     		cmp	r4, r5
  87 003e F6DB     		blt	.L3
  88              	.LBE2:
  44:capteur_MAX.c ****     }
  45:capteur_MAX.c ****     
  46:capteur_MAX.c ****     Cy_SCB_I2C_MasterSendStop(I2C_HW, 0, &I2C_context);
  89              		.loc 1 46 0 is_stmt 1
  90 0040 044A     		ldr	r2, .L5+4
  91 0042 0021     		movs	r1, #0
  92 0044 0248     		ldr	r0, .L5
  93 0046 FFF7FEFF 		bl	Cy_SCB_I2C_MasterSendStop
  94              	.LVL10:
  47:capteur_MAX.c **** }
  95              		.loc 1 47 0
  96 004a 02B0     		add	sp, sp, #8
  97              		.cfi_def_cfa_offset 24
  98              		@ sp needed
  99 004c BDE8F081 		pop	{r4, r5, r6, r7, r8, pc}
 100              	.LVL11:
 101              	.L6:
 102              		.align	2
 103              	.L5:
 104 0050 00006340 		.word	1080229888
 105 0054 00000000 		.word	I2C_context
 106              		.cfi_endproc
 107              	.LFE660:
 108              		.size	sensorEcriture, .-sensorEcriture
 109              		.section	.text.sensorLecture,"ax",%progbits
 110              		.align	2
 111              		.global	sensorLecture
 112              		.thumb
 113              		.thumb_func
 114              		.type	sensorLecture, %function
 115              	sensorLecture:
 116              	.LFB661:
  48:capteur_MAX.c **** 
  49:capteur_MAX.c **** 
  50:capteur_MAX.c **** /***************************************************************************
  51:capteur_MAX.c **** Fonction permettant de lire un ou plusieurs bytes dans un registre du
  52:capteur_MAX.c **** capteur MAX30102. L'information est stockée dans les tableaux "buffer1" et
  53:capteur_MAX.c **** "buffer2", pour séparer les données de la LED rouge et la LED infrarouge.
ARM GAS  C:\Users\clientmd\AppData\Local\Temp\ccFp8eaU.s 			page 4


  54:capteur_MAX.c **** ****************************************************************************/
  55:capteur_MAX.c **** void sensorLecture(uint8_t slave_addr, uint8_t register_addr, uint8_t *buffer1, uint8_t *buffer2, u
 117              		.loc 1 55 0
 118              		.cfi_startproc
 119              		@ args = 8, pretend = 0, frame = 0
 120              		@ frame_needed = 0, uses_anonymous_args = 0
 121              	.LVL12:
 122 0000 2DE9F04F 		push	{r4, r5, r6, r7, r8, r9, r10, fp, lr}
 123              		.cfi_def_cfa_offset 36
 124              		.cfi_offset 4, -36
 125              		.cfi_offset 5, -32
 126              		.cfi_offset 6, -28
 127              		.cfi_offset 7, -24
 128              		.cfi_offset 8, -20
 129              		.cfi_offset 9, -16
 130              		.cfi_offset 10, -12
 131              		.cfi_offset 11, -8
 132              		.cfi_offset 14, -4
 133 0004 83B0     		sub	sp, sp, #12
 134              		.cfi_def_cfa_offset 48
 135 0006 8246     		mov	r10, r0
 136 0008 8B46     		mov	fp, r1
 137 000a 9046     		mov	r8, r2
 138 000c 1F46     		mov	r7, r3
 139 000e BDF83050 		ldrh	r5, [sp, #48]
 140 0012 BDF83460 		ldrh	r6, [sp, #52]
  56:capteur_MAX.c ****     
  57:capteur_MAX.c ****     Cy_SCB_I2C_MasterSendStart(I2C_HW, slave_addr, CY_SCB_I2C_WRITE_XFER, 0, &I2C_context);
 141              		.loc 1 57 0
 142 0016 254C     		ldr	r4, .L13
 143 0018 DFF89490 		ldr	r9, .L13+4
 144 001c CDF80090 		str	r9, [sp]
 145 0020 0023     		movs	r3, #0
 146              	.LVL13:
 147 0022 1A46     		mov	r2, r3
 148              	.LVL14:
 149 0024 0146     		mov	r1, r0
 150              	.LVL15:
 151 0026 2046     		mov	r0, r4
 152              	.LVL16:
 153 0028 FFF7FEFF 		bl	Cy_SCB_I2C_MasterSendStart
 154              	.LVL17:
  58:capteur_MAX.c ****     Cy_SCB_I2C_MasterWriteByte(I2C_HW, register_addr, 0, &I2C_context);
 155              		.loc 1 58 0
 156 002c 4B46     		mov	r3, r9
 157 002e 0022     		movs	r2, #0
 158 0030 5946     		mov	r1, fp
 159 0032 2046     		mov	r0, r4
 160 0034 FFF7FEFF 		bl	Cy_SCB_I2C_MasterWriteByte
 161              	.LVL18:
  59:capteur_MAX.c ****     Cy_SCB_I2C_MasterSendReStart(I2C_HW, slave_addr, CY_SCB_I2C_READ_XFER, 0, &I2C_context);
 162              		.loc 1 59 0
 163 0038 CDF80090 		str	r9, [sp]
 164 003c 0023     		movs	r3, #0
 165 003e 0122     		movs	r2, #1
 166 0040 5146     		mov	r1, r10
 167 0042 2046     		mov	r0, r4
ARM GAS  C:\Users\clientmd\AppData\Local\Temp\ccFp8eaU.s 			page 5


 168 0044 FFF7FEFF 		bl	Cy_SCB_I2C_MasterSendReStart
 169              	.LVL19:
 170              	.LBB3:
  60:capteur_MAX.c ****     
  61:capteur_MAX.c ****     for(int i = 0; i < (2*nb_bytes)-1; i++){
 171              		.loc 1 61 0
 172 0048 0024     		movs	r4, #0
 173 004a 16E0     		b	.L8
 174              	.LVL20:
 175              	.L11:
  62:capteur_MAX.c ****         if(i < 3){
 176              		.loc 1 62 0
 177 004c 022C     		cmp	r4, #2
 178 004e 09DC     		bgt	.L9
  63:capteur_MAX.c ****             Cy_SCB_I2C_MasterReadByte(I2C_HW, CY_SCB_I2C_ACK, &buffer1[position+i], 0, &I2C_context
 179              		.loc 1 63 0
 180 0050 3219     		adds	r2, r6, r4
 181 0052 174B     		ldr	r3, .L13+4
 182 0054 0093     		str	r3, [sp]
 183 0056 0023     		movs	r3, #0
 184 0058 4244     		add	r2, r2, r8
 185 005a 1946     		mov	r1, r3
 186 005c 1348     		ldr	r0, .L13
 187 005e FFF7FEFF 		bl	Cy_SCB_I2C_MasterReadByte
 188              	.LVL21:
 189 0062 09E0     		b	.L10
 190              	.L9:
  64:capteur_MAX.c ****         }
  65:capteur_MAX.c ****         else{
  66:capteur_MAX.c ****             Cy_SCB_I2C_MasterReadByte(I2C_HW, CY_SCB_I2C_ACK, &buffer2[position+i-3], 0, &I2C_conte
 191              		.loc 1 66 0
 192 0064 3219     		adds	r2, r6, r4
 193 0066 033A     		subs	r2, r2, #3
 194 0068 114B     		ldr	r3, .L13+4
 195 006a 0093     		str	r3, [sp]
 196 006c 0023     		movs	r3, #0
 197 006e 3A44     		add	r2, r2, r7
 198 0070 1946     		mov	r1, r3
 199 0072 0E48     		ldr	r0, .L13
 200 0074 FFF7FEFF 		bl	Cy_SCB_I2C_MasterReadByte
 201              	.LVL22:
 202              	.L10:
  61:capteur_MAX.c ****         if(i < 3){
 203              		.loc 1 61 0 discriminator 2
 204 0078 0134     		adds	r4, r4, #1
 205              	.LVL23:
 206              	.L8:
  61:capteur_MAX.c ****         if(i < 3){
 207              		.loc 1 61 0 is_stmt 0 discriminator 1
 208 007a 2A46     		mov	r2, r5
 209 007c 6B00     		lsls	r3, r5, #1
 210 007e 013B     		subs	r3, r3, #1
 211 0080 9C42     		cmp	r4, r3
 212 0082 E3DB     		blt	.L11
 213              	.LBE3:
  67:capteur_MAX.c ****         }
  68:capteur_MAX.c ****     }
ARM GAS  C:\Users\clientmd\AppData\Local\Temp\ccFp8eaU.s 			page 6


  69:capteur_MAX.c ****     
  70:capteur_MAX.c ****     Cy_SCB_I2C_MasterReadByte(I2C_HW, CY_SCB_I2C_NAK, &buffer2[position+nb_bytes-1], 0, &I2C_contex
 214              		.loc 1 70 0 is_stmt 1
 215 0084 3244     		add	r2, r2, r6
 216 0086 013A     		subs	r2, r2, #1
 217 0088 084C     		ldr	r4, .L13
 218              	.LVL24:
 219 008a 094D     		ldr	r5, .L13+4
 220 008c 0095     		str	r5, [sp]
 221 008e 0023     		movs	r3, #0
 222 0090 3A44     		add	r2, r2, r7
 223 0092 0121     		movs	r1, #1
 224 0094 2046     		mov	r0, r4
 225 0096 FFF7FEFF 		bl	Cy_SCB_I2C_MasterReadByte
 226              	.LVL25:
  71:capteur_MAX.c ****     Cy_SCB_I2C_MasterSendStop(I2C_HW, 0, &I2C_context);
 227              		.loc 1 71 0
 228 009a 2A46     		mov	r2, r5
 229 009c 0021     		movs	r1, #0
 230 009e 2046     		mov	r0, r4
 231 00a0 FFF7FEFF 		bl	Cy_SCB_I2C_MasterSendStop
 232              	.LVL26:
  72:capteur_MAX.c **** }
 233              		.loc 1 72 0
 234 00a4 03B0     		add	sp, sp, #12
 235              		.cfi_def_cfa_offset 36
 236              		@ sp needed
 237 00a6 BDE8F08F 		pop	{r4, r5, r6, r7, r8, r9, r10, fp, pc}
 238              	.LVL27:
 239              	.L14:
 240 00aa 00BF     		.align	2
 241              	.L13:
 242 00ac 00006340 		.word	1080229888
 243 00b0 00000000 		.word	I2C_context
 244              		.cfi_endproc
 245              	.LFE661:
 246              		.size	sensorLecture, .-sensorLecture
 247              		.section	.text.sensorConfiguration,"ax",%progbits
 248              		.align	2
 249              		.global	sensorConfiguration
 250              		.thumb
 251              		.thumb_func
 252              		.type	sensorConfiguration, %function
 253              	sensorConfiguration:
 254              	.LFB662:
  73:capteur_MAX.c **** 
  74:capteur_MAX.c **** /***************************************************************************
  75:capteur_MAX.c **** Fonction permettant de configurer le capteur MAX30102 selon plusieurs
  76:capteur_MAX.c **** options, définies dans le nom des paramètres.
  77:capteur_MAX.c **** ****************************************************************************/
  78:capteur_MAX.c **** void sensorConfiguration(uint8_t int_enable, uint8_t average, uint8_t roll_over, uint8_t nb_restant
 255              		.loc 1 78 0
 256              		.cfi_startproc
 257              		@ args = 28, pretend = 0, frame = 16
 258              		@ frame_needed = 0, uses_anonymous_args = 0
 259              	.LVL28:
 260 0000 10B5     		push	{r4, lr}
ARM GAS  C:\Users\clientmd\AppData\Local\Temp\ccFp8eaU.s 			page 7


 261              		.cfi_def_cfa_offset 8
 262              		.cfi_offset 4, -8
 263              		.cfi_offset 14, -4
 264 0002 84B0     		sub	sp, sp, #16
 265              		.cfi_def_cfa_offset 24
 266 0004 8DF80700 		strb	r0, [sp, #7]
  79:capteur_MAX.c ****     
  80:capteur_MAX.c ****     uint8_t fifo_config = average|(roll_over|nb_restant);
 267              		.loc 1 80 0
 268 0008 1343     		orrs	r3, r3, r2
 269              	.LVL29:
 270 000a 1943     		orrs	r1, r1, r3
 271              	.LVL30:
 272 000c 8DF80F10 		strb	r1, [sp, #15]
  81:capteur_MAX.c ****     uint8_t mode_config = sensor_mode;
 273              		.loc 1 81 0
 274 0010 9DF81830 		ldrb	r3, [sp, #24]	@ zero_extendqisi2
 275 0014 8DF80E30 		strb	r3, [sp, #14]
  82:capteur_MAX.c ****     uint8_t SpO2_config = range_contr|(SPS|ADC_resol);
 276              		.loc 1 82 0
 277 0018 9DF82430 		ldrb	r3, [sp, #36]	@ zero_extendqisi2
 278 001c 9DF82020 		ldrb	r2, [sp, #32]	@ zero_extendqisi2
 279              	.LVL31:
 280 0020 1343     		orrs	r3, r3, r2
 281 0022 9DF81C20 		ldrb	r2, [sp, #28]	@ zero_extendqisi2
 282 0026 1343     		orrs	r3, r3, r2
 283 0028 8DF80D30 		strb	r3, [sp, #13]
  83:capteur_MAX.c ****     
  84:capteur_MAX.c ****     sensorEcriture(capteurAdresse, 0x02, &int_enable, 1);
 284              		.loc 1 84 0
 285 002c 184C     		ldr	r4, .L17
 286 002e 0123     		movs	r3, #1
 287 0030 0DF10702 		add	r2, sp, #7
 288 0034 0221     		movs	r1, #2
 289 0036 2078     		ldrb	r0, [r4]	@ zero_extendqisi2
 290              	.LVL32:
 291 0038 FFF7FEFF 		bl	sensorEcriture
 292              	.LVL33:
  85:capteur_MAX.c ****     sensorEcriture(capteurAdresse, 0x08, &fifo_config, 1);
 293              		.loc 1 85 0
 294 003c 0123     		movs	r3, #1
 295 003e 0DF10F02 		add	r2, sp, #15
 296 0042 0821     		movs	r1, #8
 297 0044 2078     		ldrb	r0, [r4]	@ zero_extendqisi2
 298 0046 FFF7FEFF 		bl	sensorEcriture
 299              	.LVL34:
  86:capteur_MAX.c ****     sensorEcriture(capteurAdresse, 0x09, &mode_config, 1);
 300              		.loc 1 86 0
 301 004a 0123     		movs	r3, #1
 302 004c 0DF10E02 		add	r2, sp, #14
 303 0050 0921     		movs	r1, #9
 304 0052 2078     		ldrb	r0, [r4]	@ zero_extendqisi2
 305 0054 FFF7FEFF 		bl	sensorEcriture
 306              	.LVL35:
  87:capteur_MAX.c ****     sensorEcriture(capteurAdresse, 0x0A, &SpO2_config, 1);
 307              		.loc 1 87 0
 308 0058 0123     		movs	r3, #1
ARM GAS  C:\Users\clientmd\AppData\Local\Temp\ccFp8eaU.s 			page 8


 309 005a 0DF10D02 		add	r2, sp, #13
 310 005e 0A21     		movs	r1, #10
 311 0060 2078     		ldrb	r0, [r4]	@ zero_extendqisi2
 312 0062 FFF7FEFF 		bl	sensorEcriture
 313              	.LVL36:
  88:capteur_MAX.c ****     sensorEcriture(capteurAdresse, 0x0C, &LED1_curr, 1);
 314              		.loc 1 88 0
 315 0066 0123     		movs	r3, #1
 316 0068 0AAA     		add	r2, sp, #40
 317              	.LVL37:
 318 006a 0C21     		movs	r1, #12
 319 006c 2078     		ldrb	r0, [r4]	@ zero_extendqisi2
 320 006e FFF7FEFF 		bl	sensorEcriture
 321              	.LVL38:
  89:capteur_MAX.c ****     sensorEcriture(capteurAdresse, 0x0D, &LED2_curr, 1);
 322              		.loc 1 89 0
 323 0072 0123     		movs	r3, #1
 324 0074 0BAA     		add	r2, sp, #44
 325              	.LVL39:
 326 0076 0D21     		movs	r1, #13
 327 0078 2078     		ldrb	r0, [r4]	@ zero_extendqisi2
 328 007a FFF7FEFF 		bl	sensorEcriture
 329              	.LVL40:
  90:capteur_MAX.c ****     sensorEcriture(capteurAdresse, 0x03, &temp, 1);
 330              		.loc 1 90 0
 331 007e 0123     		movs	r3, #1
 332 0080 0CAA     		add	r2, sp, #48
 333              	.LVL41:
 334 0082 0321     		movs	r1, #3
 335 0084 2078     		ldrb	r0, [r4]	@ zero_extendqisi2
 336 0086 FFF7FEFF 		bl	sensorEcriture
 337              	.LVL42:
  91:capteur_MAX.c **** }
 338              		.loc 1 91 0
 339 008a 04B0     		add	sp, sp, #16
 340              		.cfi_def_cfa_offset 8
 341              		@ sp needed
 342 008c 10BD     		pop	{r4, pc}
 343              	.LVL43:
 344              	.L18:
 345 008e 00BF     		.align	2
 346              	.L17:
 347 0090 00000000 		.word	capteurAdresse
 348              		.cfi_endproc
 349              	.LFE662:
 350              		.size	sensorConfiguration, .-sensorConfiguration
 351              		.section	.text.acquisition,"ax",%progbits
 352              		.align	2
 353              		.global	acquisition
 354              		.thumb
 355              		.thumb_func
 356              		.type	acquisition, %function
 357              	acquisition:
 358              	.LFB663:
  92:capteur_MAX.c **** 
  93:capteur_MAX.c **** 
  94:capteur_MAX.c **** /***************************************************************************
ARM GAS  C:\Users\clientmd\AppData\Local\Temp\ccFp8eaU.s 			page 9


  95:capteur_MAX.c **** Tâche d'acquisition de données, dans laquelle on revient à chaque 8
  96:capteur_MAX.c **** millisecondes. Cette tâche vérifie chaque fois si une nouvelle donnée est
  97:capteur_MAX.c **** apparue dans le FIFO; si oui, elle lit cette valeur et la place dans un 
  98:capteur_MAX.c **** tableau de données.
  99:capteur_MAX.c **** ****************************************************************************/
 100:capteur_MAX.c **** void acquisition(){
 359              		.loc 1 100 0
 360              		.cfi_startproc
 361              		@ args = 0, pretend = 0, frame = 8
 362              		@ frame_needed = 0, uses_anonymous_args = 0
 363 0000 70B5     		push	{r4, r5, r6, lr}
 364              		.cfi_def_cfa_offset 16
 365              		.cfi_offset 4, -16
 366              		.cfi_offset 5, -12
 367              		.cfi_offset 6, -8
 368              		.cfi_offset 14, -4
 369 0002 84B0     		sub	sp, sp, #16
 370              		.cfi_def_cfa_offset 32
 371              	.L25:
 101:capteur_MAX.c ****     
 102:capteur_MAX.c ****     for(;;){
 103:capteur_MAX.c ****         /* Cette tâche n'est active que si nous nous retrouvons dans la page de présentation des 
 104:capteur_MAX.c ****         if(menuActif == false){
 372              		.loc 1 104 0
 373 0004 504B     		ldr	r3, .L27
 374 0006 1B78     		ldrb	r3, [r3]	@ zero_extendqisi2
 375 0008 13F0FF0F 		tst	r3, #255
 376 000c 40F09880 		bne	.L20
 377              	.LBB4:
 105:capteur_MAX.c ****             uint8_t test[1];
 106:capteur_MAX.c ****             sensorLecture(capteurAdresse, 0x00, test_1, test, 0, 1);
 378              		.loc 1 106 0
 379 0010 4E4B     		ldr	r3, .L27+4
 380 0012 1878     		ldrb	r0, [r3]	@ zero_extendqisi2
 381 0014 0123     		movs	r3, #1
 382 0016 0193     		str	r3, [sp, #4]
 383 0018 0021     		movs	r1, #0
 384 001a 0091     		str	r1, [sp]
 385 001c 03AB     		add	r3, sp, #12
 386 001e 4C4A     		ldr	r2, .L27+8
 387 0020 FFF7FEFF 		bl	sensorLecture
 388              	.LVL44:
 107:capteur_MAX.c ****             
 108:capteur_MAX.c ****             if(test[0] != 0)
 389              		.loc 1 108 0
 390 0024 9DF80C30 		ldrb	r3, [sp, #12]	@ zero_extendqisi2
 391 0028 002B     		cmp	r3, #0
 392 002a 00F08980 		beq	.L20
 109:capteur_MAX.c ****             {
 110:capteur_MAX.c ****                 compteur +=1;
 393              		.loc 1 110 0
 394 002e 494C     		ldr	r4, .L27+12
 395 0030 2368     		ldr	r3, [r4]
 396 0032 0133     		adds	r3, r3, #1
 397 0034 2360     		str	r3, [r4]
 111:capteur_MAX.c ****                 sensorLecture(capteurAdresse, fifoAdresse, red, ir, 3, 0);
 398              		.loc 1 111 0
ARM GAS  C:\Users\clientmd\AppData\Local\Temp\ccFp8eaU.s 			page 10


 399 0036 484D     		ldr	r5, .L27+16
 400 0038 484E     		ldr	r6, .L27+20
 401 003a 494B     		ldr	r3, .L27+24
 402 003c 1978     		ldrb	r1, [r3]	@ zero_extendqisi2
 403 003e 434B     		ldr	r3, .L27+4
 404 0040 1878     		ldrb	r0, [r3]	@ zero_extendqisi2
 405 0042 0023     		movs	r3, #0
 406 0044 0193     		str	r3, [sp, #4]
 407 0046 0323     		movs	r3, #3
 408 0048 0093     		str	r3, [sp]
 409 004a 2B46     		mov	r3, r5
 410 004c 3246     		mov	r2, r6
 411 004e FFF7FEFF 		bl	sensorLecture
 412              	.LVL45:
 112:capteur_MAX.c ****                 
 113:capteur_MAX.c ****                 /* Regroupement des différents valeurs de 8 bits en valeurs cohérentes de 32 bits
 114:capteur_MAX.c ****                 redSample = (uint32_t)((((uint32_t)red[0])<<16)|(((uint32_t)red[1])<<8)|((uint32_t)
 413              		.loc 1 114 0
 414 0052 3178     		ldrb	r1, [r6]	@ zero_extendqisi2
 415 0054 7378     		ldrb	r3, [r6, #1]	@ zero_extendqisi2
 416 0056 1B02     		lsls	r3, r3, #8
 417 0058 43EA0141 		orr	r1, r3, r1, lsl #16
 418 005c B378     		ldrb	r3, [r6, #2]	@ zero_extendqisi2
 419 005e 1943     		orrs	r1, r1, r3
 420 0060 404B     		ldr	r3, .L27+28
 421 0062 1960     		str	r1, [r3]
 115:capteur_MAX.c ****                 irSample = (uint32_t)((((uint32_t)ir[0])<<16)|(((uint32_t)ir[1])<<8)|((uint32_t)ir[
 422              		.loc 1 115 0
 423 0064 2A78     		ldrb	r2, [r5]	@ zero_extendqisi2
 424 0066 6B78     		ldrb	r3, [r5, #1]	@ zero_extendqisi2
 425 0068 1B02     		lsls	r3, r3, #8
 426 006a 43EA0242 		orr	r2, r3, r2, lsl #16
 427 006e AB78     		ldrb	r3, [r5, #2]	@ zero_extendqisi2
 428 0070 1A43     		orrs	r2, r2, r3
 429 0072 3D4B     		ldr	r3, .L27+32
 430 0074 1A60     		str	r2, [r3]
 116:capteur_MAX.c ****                 vecteur_RED[compteur-1] = (float32_t) redSample;
 431              		.loc 1 116 0
 432 0076 2068     		ldr	r0, [r4]
 433 0078 431E     		subs	r3, r0, #1
 434 007a 07EE901A 		vmov	s15, r1	@ int
 435 007e F8EE677A 		vcvt.f32.u32	s15, s15
 436 0082 9B00     		lsls	r3, r3, #2
 437 0084 3949     		ldr	r1, .L27+36
 438 0086 1944     		add	r1, r1, r3
 439 0088 C1ED007A 		vstr.32	s15, [r1]
 117:capteur_MAX.c ****                 vecteur_IR[compteur-1] = (float32_t) irSample;
 440              		.loc 1 117 0
 441 008c 07EE902A 		vmov	s15, r2	@ int
 442 0090 F8EE677A 		vcvt.f32.u32	s15, s15
 443 0094 364A     		ldr	r2, .L27+40
 444 0096 1344     		add	r3, r3, r2
 445 0098 C3ED007A 		vstr.32	s15, [r3]
 118:capteur_MAX.c ****                 
 119:capteur_MAX.c ****                 if(compteur%500 == 0){
 446              		.loc 1 119 0
 447 009c 354B     		ldr	r3, .L27+44
ARM GAS  C:\Users\clientmd\AppData\Local\Temp\ccFp8eaU.s 			page 11


 448 009e A3FB0023 		umull	r2, r3, r3, r0
 449 00a2 5B09     		lsrs	r3, r3, #5
 450 00a4 4FF4FA72 		mov	r2, #500
 451 00a8 02FB1303 		mls	r3, r2, r3, r0
 452 00ac 002B     		cmp	r3, #0
 453 00ae 47D1     		bne	.L20
 120:capteur_MAX.c ****                     if(iterations == 0){            //Seulement après 10 secondes lorsque c'est la
 454              		.loc 1 120 0
 455 00b0 314B     		ldr	r3, .L27+48
 456 00b2 1A78     		ldrb	r2, [r3]	@ zero_extendqisi2
 457 00b4 EAB9     		cbnz	r2, .L22
 121:capteur_MAX.c ****                         if(compteur >= 1000){
 458              		.loc 1 121 0
 459 00b6 B0F57A7F 		cmp	r0, #1000
 460 00ba 41D3     		bcc	.L20
 122:capteur_MAX.c ****                             read = compteur - 500;
 461              		.loc 1 122 0
 462 00bc A0F5FA73 		sub	r3, r0, #500
 463 00c0 9BB2     		uxth	r3, r3
 464 00c2 2E49     		ldr	r1, .L27+52
 465 00c4 0B80     		strh	r3, [r1]	@ movhi
 123:capteur_MAX.c ****                             if(compteur%2000 == 0){
 466              		.loc 1 123 0
 467 00c6 2B4B     		ldr	r3, .L27+44
 468 00c8 A3FB0013 		umull	r1, r3, r3, r0
 469 00cc DB09     		lsrs	r3, r3, #7
 470 00ce 4FF4FA61 		mov	r1, #2000
 471 00d2 01FB1303 		mls	r3, r1, r3, r0
 472 00d6 23B9     		cbnz	r3, .L23
 124:capteur_MAX.c ****                                 compteur = 0;
 473              		.loc 1 124 0
 474 00d8 0021     		movs	r1, #0
 475 00da 2160     		str	r1, [r4]
 125:capteur_MAX.c ****                                 iterations += 1;
 476              		.loc 1 125 0
 477 00dc 0132     		adds	r2, r2, #1
 478 00de 264B     		ldr	r3, .L27+48
 479 00e0 1A70     		strb	r2, [r3]
 480              	.L23:
 126:capteur_MAX.c ****                             }
 127:capteur_MAX.c ****                             xSemaphoreGive(semaph);
 481              		.loc 1 127 0
 482 00e2 0023     		movs	r3, #0
 483 00e4 1A46     		mov	r2, r3
 484 00e6 1946     		mov	r1, r3
 485 00e8 2548     		ldr	r0, .L27+56
 486 00ea 0068     		ldr	r0, [r0]
 487 00ec FFF7FEFF 		bl	xQueueGenericSend
 488              	.LVL46:
 489 00f0 26E0     		b	.L20
 490              	.L22:
 128:capteur_MAX.c ****                         }
 129:capteur_MAX.c ****                     }
 130:capteur_MAX.c ****                     else{
 131:capteur_MAX.c ****                         if(compteur%2000 == 0){
 491              		.loc 1 131 0
 492 00f2 204B     		ldr	r3, .L27+44
ARM GAS  C:\Users\clientmd\AppData\Local\Temp\ccFp8eaU.s 			page 12


 493 00f4 A3FB0013 		umull	r1, r3, r3, r0
 494 00f8 DB09     		lsrs	r3, r3, #7
 495 00fa 4FF4FA61 		mov	r1, #2000
 496 00fe 01FB1303 		mls	r3, r1, r3, r0
 497 0102 8BB9     		cbnz	r3, .L24
 132:capteur_MAX.c ****                             iterations += 1;
 498              		.loc 1 132 0
 499 0104 0132     		adds	r2, r2, #1
 500 0106 1C4B     		ldr	r3, .L27+48
 501 0108 1A70     		strb	r2, [r3]
 133:capteur_MAX.c ****                             read = compteur - 500;
 502              		.loc 1 133 0
 503 010a A0F5FA73 		sub	r3, r0, #500
 504 010e 9BB2     		uxth	r3, r3
 505 0110 1A4A     		ldr	r2, .L27+52
 506 0112 1380     		strh	r3, [r2]	@ movhi
 134:capteur_MAX.c ****                             compteur = 0;
 507              		.loc 1 134 0
 508 0114 0021     		movs	r1, #0
 509 0116 0F4B     		ldr	r3, .L27+12
 510 0118 1960     		str	r1, [r3]
 135:capteur_MAX.c ****                             xSemaphoreGive(semaph);
 511              		.loc 1 135 0
 512 011a 0B46     		mov	r3, r1
 513 011c 0A46     		mov	r2, r1
 514 011e 1848     		ldr	r0, .L27+56
 515 0120 0068     		ldr	r0, [r0]
 516 0122 FFF7FEFF 		bl	xQueueGenericSend
 517              	.LVL47:
 518 0126 0BE0     		b	.L20
 519              	.L24:
 136:capteur_MAX.c ****                         }
 137:capteur_MAX.c ****                         else{
 138:capteur_MAX.c ****                             read = compteur - 500;
 520              		.loc 1 138 0
 521 0128 A0F5FA73 		sub	r3, r0, #500
 522 012c 9BB2     		uxth	r3, r3
 523 012e 134A     		ldr	r2, .L27+52
 524 0130 1380     		strh	r3, [r2]	@ movhi
 139:capteur_MAX.c ****                             xSemaphoreGive(semaph);
 525              		.loc 1 139 0
 526 0132 0023     		movs	r3, #0
 527 0134 1A46     		mov	r2, r3
 528 0136 1946     		mov	r1, r3
 529 0138 1148     		ldr	r0, .L27+56
 530 013a 0068     		ldr	r0, [r0]
 531 013c FFF7FEFF 		bl	xQueueGenericSend
 532              	.LVL48:
 533              	.L20:
 534              	.LBE4:
 140:capteur_MAX.c ****                         }
 141:capteur_MAX.c ****                     }
 142:capteur_MAX.c ****                 }
 143:capteur_MAX.c ****             }
 144:capteur_MAX.c ****         }
 145:capteur_MAX.c ****         vTaskDelay(pdMS_TO_TICKS(8));
 535              		.loc 1 145 0
ARM GAS  C:\Users\clientmd\AppData\Local\Temp\ccFp8eaU.s 			page 13


 536 0140 0820     		movs	r0, #8
 537 0142 FFF7FEFF 		bl	vTaskDelay
 538              	.LVL49:
 146:capteur_MAX.c ****     }
 539              		.loc 1 146 0
 540 0146 5DE7     		b	.L25
 541              	.L28:
 542              		.align	2
 543              	.L27:
 544 0148 00000000 		.word	menuActif
 545 014c 00000000 		.word	capteurAdresse
 546 0150 00000000 		.word	test_1
 547 0154 00000000 		.word	compteur
 548 0158 00000000 		.word	ir
 549 015c 00000000 		.word	red
 550 0160 00000000 		.word	fifoAdresse
 551 0164 00000000 		.word	redSample
 552 0168 00000000 		.word	irSample
 553 016c 00000000 		.word	vecteur_RED
 554 0170 00000000 		.word	vecteur_IR
 555 0174 D34D6210 		.word	274877907
 556 0178 00000000 		.word	iterations
 557 017c 00000000 		.word	read
 558 0180 00000000 		.word	semaph
 559              		.cfi_endproc
 560              	.LFE663:
 561              		.size	acquisition, .-acquisition
 562              		.comm	irSample,4,4
 563              		.comm	redSample,4,4
 564              		.comm	ir,3,4
 565              		.comm	red,3,4
 566              		.comm	accelerometre,1,1
 567              		.comm	alarmeActive,1,1
 568              		.comm	menuActif,1,1
 569              		.comm	courantDELr_config,1,1
 570              		.comm	courantDELi_config,1,1
 571              		.comm	iterations,1,1
 572              		.comm	compteur,4,4
 573              		.comm	maxRED,4,4
 574              		.comm	minRED,4,4
 575              		.comm	maxIR,4,4
 576              		.comm	minIR,4,4
 577              		.comm	read,2,2
 578              		.comm	BPM,1,1
 579              		.comm	SpO2,4,4
 580              		.comm	trait_Handle,4,4
 581              		.comm	SpO2_Handle,4,4
 582              		.comm	test_2,1,4
 583              		.comm	test_1,1,4
 584              		.comm	graph_semph,4,4
 585              		.comm	semaph,4,4
 586              		.comm	fifoAdresse,1,1
 587              		.comm	capteurAdresse,1,1
 588              		.comm	buff_filtered_RED_copy,800,4
 589              		.comm	buff_filtered_IR_copy,800,4
 590              		.comm	vecteur_IR,8000,4
 591              		.comm	vecteur_RED,8000,4
ARM GAS  C:\Users\clientmd\AppData\Local\Temp\ccFp8eaU.s 			page 14


 592              		.text
 593              	.Letext0:
 594              		.file 2 "d:\\psoc creator\\4.4\\psoc creator\\import\\gnu\\arm\\5.4.1\\arm-none-eabi\\include\\mac
 595              		.file 3 "d:\\psoc creator\\4.4\\psoc creator\\import\\gnu\\arm\\5.4.1\\arm-none-eabi\\include\\sys
 596              		.file 4 "Generated_Source\\PSoC6\\pdl\\devices/psoc6/include/ip/cyip_scb.h"
 597              		.file 5 "Generated_Source\\PSoC6\\pdl\\devices/psoc6/include/psoc6_01_config.h"
 598              		.file 6 "Generated_Source\\PSoC6\\pdl\\drivers/peripheral/device/cy_device.h"
 599              		.file 7 "Generated_Source\\PSoC6\\pdl\\drivers/peripheral/syslib/cy_syslib.h"
 600              		.file 8 "Generated_Source\\PSoC6\\pdl\\drivers/peripheral/scb/cy_scb_i2c.h"
 601              		.file 9 "Generated_Source\\PSoC6\\pdl\\drivers/peripheral/scb/cy_scb_spi.h"
 602              		.file 10 "Generated_Source\\PSoC6\\pdl\\drivers/peripheral/scb/cy_scb_uart.h"
 603              		.file 11 "Generated_Source\\PSoC6\\pdl\\drivers/peripheral/tcpwm/cy_tcpwm_counter.h"
 604              		.file 12 "Generated_Source\\PSoC6\\pdl\\rtos/FreeRTOS/10.0.1/Source/portable/GCC/CM4F/portmacro.h"
 605              		.file 13 "Generated_Source\\PSoC6\\pdl\\rtos/FreeRTOS/10.0.1/Source/include/task.h"
 606              		.file 14 "Generated_Source\\PSoC6\\pdl\\rtos/FreeRTOS/10.0.1/Source/include/queue.h"
 607              		.file 15 "Generated_Source\\PSoC6\\pdl\\rtos/FreeRTOS/10.0.1/Source/include/semphr.h"
 608              		.file 16 "variables.h"
 609              		.file 17 ".\\CMSIS\\Core\\Include/core_cm4.h"
 610              		.file 18 "Generated_Source\\PSoC6/CY_EINK_SPIM.h"
 611              		.file 19 "Generated_Source\\PSoC6/CY_EINK_Timer.h"
 612              		.file 20 "Generated_Source\\PSoC6/I2C.h"
 613              		.file 21 "Generated_Source\\PSoC6/DEBUG_UART.h"
 614              		.file 22 "Generated_Source\\PSoC6/I2Cm.h"